ARM GAS  C:\Users\casey\AppData\Local\Temp\ccPpDh9T.s 			page 1


   1              		.syntax unified
   2              		.cpu cortex-m0
   3              		.fpu softvfp
   4              		.eabi_attribute 20, 1
   5              		.eabi_attribute 21, 1
   6              		.eabi_attribute 23, 3
   7              		.eabi_attribute 24, 1
   8              		.eabi_attribute 25, 1
   9              		.eabi_attribute 26, 1
  10              		.eabi_attribute 30, 1
  11              		.eabi_attribute 34, 0
  12              		.eabi_attribute 18, 4
  13              		.thumb
  14              		.syntax unified
  15              		.file	"CANScience.c"
  16              		.text
  17              	.Ltext0:
  18              		.cfi_sections	.debug_frame
  19              		.section	.text.AssembleScienceSensorPullPacket,"ax",%progbits
  20              		.align	2
  21              		.global	AssembleScienceSensorPullPacket
  22              		.code	16
  23              		.thumb_func
  24              		.type	AssembleScienceSensorPullPacket, %function
  25              	AssembleScienceSensorPullPacket:
  26              	.LFB0:
  27              		.file 1 "CAN Library\\CANScience.c"
   1:CAN Library/CANScience.c **** #include "CANPacket.h"
   2:CAN Library/CANScience.c **** #include "CANCommon.h"
   3:CAN Library/CANScience.c **** #include "CANScience.h"
   4:CAN Library/CANScience.c **** #include "CANMotorUnit.h"
   5:CAN Library/CANScience.c **** 
   6:CAN Library/CANScience.c **** void AssembleScienceSensorPullPacket(CANPacket *packetToAssemble,
   7:CAN Library/CANScience.c **** 	uint8_t targetGroup,
   8:CAN Library/CANScience.c **** 	uint8_t targetSerial,
   9:CAN Library/CANScience.c **** 	uint8_t sensorCode)
  10:CAN Library/CANScience.c **** {
  28              		.loc 1 10 0
  29              		.cfi_startproc
  30              		@ args = 0, pretend = 0, frame = 0
  31              		@ frame_needed = 0, uses_anonymous_args = 0
  32              	.LVL0:
  33 0000 10B5     		push	{r4, lr}
  34              		.cfi_def_cfa_offset 8
  35              		.cfi_offset 4, -8
  36              		.cfi_offset 14, -4
  11:CAN Library/CANScience.c **** 	AssembleTelemetryPullPacket(packetToAssemble, targetGroup, targetSerial, sensorCode);
  37              		.loc 1 11 0
  38 0002 FFF7FEFF 		bl	AssembleTelemetryPullPacket
  39              	.LVL1:
  12:CAN Library/CANScience.c **** }
  40              		.loc 1 12 0
  41              		@ sp needed
  42 0006 10BD     		pop	{r4, pc}
  43              		.cfi_endproc
  44              	.LFE0:
  45              		.size	AssembleScienceSensorPullPacket, .-AssembleScienceSensorPullPacket
ARM GAS  C:\Users\casey\AppData\Local\Temp\ccPpDh9T.s 			page 2


  46              		.section	.text.AssembleScienceMotorControlPacket,"ax",%progbits
  47              		.align	2
  48              		.global	AssembleScienceMotorControlPacket
  49              		.code	16
  50              		.thumb_func
  51              		.type	AssembleScienceMotorControlPacket, %function
  52              	AssembleScienceMotorControlPacket:
  53              	.LFB1:
  13:CAN Library/CANScience.c **** 
  14:CAN Library/CANScience.c **** void AssembleScienceMotorControlPacket(CANPacket *packetToAssemble,
  15:CAN Library/CANScience.c **** 	uint8_t targetGroup,
  16:CAN Library/CANScience.c **** 	uint8_t targetSerial,
  17:CAN Library/CANScience.c **** 	uint8_t motor,
  18:CAN Library/CANScience.c **** 	int16_t PWMSet)
  19:CAN Library/CANScience.c **** {
  54              		.loc 1 19 0
  55              		.cfi_startproc
  56              		@ args = 4, pretend = 0, frame = 0
  57              		@ frame_needed = 0, uses_anonymous_args = 0
  58              	.LVL2:
  59 0000 F0B5     		push	{r4, r5, r6, r7, lr}
  60              		.cfi_def_cfa_offset 20
  61              		.cfi_offset 4, -20
  62              		.cfi_offset 5, -16
  63              		.cfi_offset 6, -12
  64              		.cfi_offset 7, -8
  65              		.cfi_offset 14, -4
  66 0002 4746     		mov	r7, r8
  67 0004 80B4     		push	{r7}
  68              		.cfi_def_cfa_offset 24
  69              		.cfi_offset 8, -24
  70 0006 0500     		movs	r5, r0
  71 0008 1F00     		movs	r7, r3
  72 000a 06AB     		add	r3, sp, #24
  73              	.LVL3:
  74 000c 0020     		movs	r0, #0
  75 000e 1B5E     		ldrsh	r3, [r3, r0]
  76              	.LVL4:
  77 0010 9846     		mov	r8, r3
  20:CAN Library/CANScience.c **** 	packetToAssemble->id = ConstructCANID(PRIO_MOTOR_UNIT_PWM_DIR_SET, targetGroup, targetSerial);
  78              		.loc 1 20 0
  79 0012 0120     		movs	r0, #1
  80 0014 FFF7FEFF 		bl	ConstructCANID
  81              	.LVL5:
  82 0018 2880     		strh	r0, [r5]
  21:CAN Library/CANScience.c **** 	packetToAssemble->dlc = 4;
  83              		.loc 1 21 0
  84 001a 0423     		movs	r3, #4
  85 001c AB70     		strb	r3, [r5, #2]
  22:CAN Library/CANScience.c **** 	int nextByte = WritePacketIDOnly(packetToAssemble->data, ID_MOTOR_UNIT_PWM_DIR_SET);
  86              		.loc 1 22 0
  87 001e EE1C     		adds	r6, r5, #3
  88 0020 0321     		movs	r1, #3
  89 0022 3000     		movs	r0, r6
  90 0024 FFF7FEFF 		bl	WritePacketIDOnly
  91              	.LVL6:
  92 0028 0400     		movs	r4, r0
ARM GAS  C:\Users\casey\AppData\Local\Temp\ccPpDh9T.s 			page 3


  93              	.LVL7:
  23:CAN Library/CANScience.c **** 	PackShortIntoDataMSBFirst(packetToAssemble->data, PWMSet, nextByte);
  94              		.loc 1 23 0
  95 002a 0200     		movs	r2, r0
  96 002c 4146     		mov	r1, r8
  97 002e 3000     		movs	r0, r6
  98              	.LVL8:
  99 0030 FFF7FEFF 		bl	PackShortIntoDataMSBFirst
 100              	.LVL9:
  24:CAN Library/CANScience.c **** 	packetToAssemble->data[nextByte + 2] = motor;
 101              		.loc 1 24 0
 102 0034 0234     		adds	r4, r4, #2
 103              	.LVL10:
 104 0036 2C19     		adds	r4, r5, r4
 105              	.LVL11:
 106 0038 E770     		strb	r7, [r4, #3]
  25:CAN Library/CANScience.c **** }
 107              		.loc 1 25 0
 108              		@ sp needed
 109              	.LVL12:
 110              	.LVL13:
 111 003a 04BC     		pop	{r2}
 112 003c 9046     		mov	r8, r2
 113 003e F0BD     		pop	{r4, r5, r6, r7, pc}
 114              		.cfi_endproc
 115              	.LFE1:
 116              		.size	AssembleScienceMotorControlPacket, .-AssembleScienceMotorControlPacket
 117              		.section	.text.AssembleScienceServoPacket,"ax",%progbits
 118              		.align	2
 119              		.global	AssembleScienceServoPacket
 120              		.code	16
 121              		.thumb_func
 122              		.type	AssembleScienceServoPacket, %function
 123              	AssembleScienceServoPacket:
 124              	.LFB2:
  26:CAN Library/CANScience.c **** 
  27:CAN Library/CANScience.c **** void AssembleScienceServoPacket(CANPacket *packetToAssemble,
  28:CAN Library/CANScience.c **** 	uint8_t targetGroup,
  29:CAN Library/CANScience.c **** 	uint8_t targetSerial,
  30:CAN Library/CANScience.c **** 	uint8_t servo,
  31:CAN Library/CANScience.c **** 	uint8_t degrees)
  32:CAN Library/CANScience.c **** {
 125              		.loc 1 32 0
 126              		.cfi_startproc
 127              		@ args = 4, pretend = 0, frame = 0
 128              		@ frame_needed = 0, uses_anonymous_args = 0
 129              	.LVL14:
 130 0000 70B5     		push	{r4, r5, r6, lr}
 131              		.cfi_def_cfa_offset 16
 132              		.cfi_offset 4, -16
 133              		.cfi_offset 5, -12
 134              		.cfi_offset 6, -8
 135              		.cfi_offset 14, -4
 136 0002 0400     		movs	r4, r0
 137 0004 1E00     		movs	r6, r3
 138 0006 04AB     		add	r3, sp, #16
 139              	.LVL15:
ARM GAS  C:\Users\casey\AppData\Local\Temp\ccPpDh9T.s 			page 4


 140 0008 1D78     		ldrb	r5, [r3]
  33:CAN Library/CANScience.c **** 	packetToAssemble->id = ConstructCANID(PACKET_PRIORITY_NORMAL, targetGroup, targetSerial);
 141              		.loc 1 33 0
 142 000a 0120     		movs	r0, #1
 143              	.LVL16:
 144 000c FFF7FEFF 		bl	ConstructCANID
 145              	.LVL17:
 146 0010 2080     		strh	r0, [r4]
  34:CAN Library/CANScience.c **** 	packetToAssemble->dlc = 3;
 147              		.loc 1 34 0
 148 0012 0323     		movs	r3, #3
 149 0014 A370     		strb	r3, [r4, #2]
  35:CAN Library/CANScience.c **** 	WritePacketIDOnly(packetToAssemble->data, ID_SCIENCE_SERVO_SET);
 150              		.loc 1 35 0
 151 0016 E01C     		adds	r0, r4, #3
 152 0018 0D21     		movs	r1, #13
 153 001a FFF7FEFF 		bl	WritePacketIDOnly
 154              	.LVL18:
  36:CAN Library/CANScience.c **** 	packetToAssemble->data[1] = servo;
 155              		.loc 1 36 0
 156 001e 2671     		strb	r6, [r4, #4]
  37:CAN Library/CANScience.c **** 	packetToAssemble->data[2] = degrees;
 157              		.loc 1 37 0
 158 0020 6571     		strb	r5, [r4, #5]
  38:CAN Library/CANScience.c **** }
 159              		.loc 1 38 0
 160              		@ sp needed
 161              	.LVL19:
 162 0022 70BD     		pop	{r4, r5, r6, pc}
 163              		.cfi_endproc
 164              	.LFE2:
 165              		.size	AssembleScienceServoPacket, .-AssembleScienceServoPacket
 166              		.section	.text.GetScienceMotorPWMFromPacket,"ax",%progbits
 167              		.align	2
 168              		.global	GetScienceMotorPWMFromPacket
 169              		.code	16
 170              		.thumb_func
 171              		.type	GetScienceMotorPWMFromPacket, %function
 172              	GetScienceMotorPWMFromPacket:
 173              	.LFB3:
  39:CAN Library/CANScience.c **** 
  40:CAN Library/CANScience.c **** int16_t GetScienceMotorPWMFromPacket(CANPacket *packet){
 174              		.loc 1 40 0
 175              		.cfi_startproc
 176              		@ args = 0, pretend = 0, frame = 0
 177              		@ frame_needed = 0, uses_anonymous_args = 0
 178              	.LVL20:
 179 0000 10B5     		push	{r4, lr}
 180              		.cfi_def_cfa_offset 8
 181              		.cfi_offset 4, -8
 182              		.cfi_offset 14, -4
  41:CAN Library/CANScience.c **** 	return DecodeBytesToIntMSBFirst(packet->data, 1, 2);
 183              		.loc 1 41 0
 184 0002 0330     		adds	r0, r0, #3
 185              	.LVL21:
 186 0004 0222     		movs	r2, #2
 187 0006 0121     		movs	r1, #1
ARM GAS  C:\Users\casey\AppData\Local\Temp\ccPpDh9T.s 			page 5


 188 0008 FFF7FEFF 		bl	DecodeBytesToIntMSBFirst
 189              	.LVL22:
 190 000c 00B2     		sxth	r0, r0
  42:CAN Library/CANScience.c **** }
 191              		.loc 1 42 0
 192              		@ sp needed
 193 000e 10BD     		pop	{r4, pc}
 194              		.cfi_endproc
 195              	.LFE3:
 196              		.size	GetScienceMotorPWMFromPacket, .-GetScienceMotorPWMFromPacket
 197              		.section	.text.GetScienceServoAngleFromPacket,"ax",%progbits
 198              		.align	2
 199              		.global	GetScienceServoAngleFromPacket
 200              		.code	16
 201              		.thumb_func
 202              		.type	GetScienceServoAngleFromPacket, %function
 203              	GetScienceServoAngleFromPacket:
 204              	.LFB4:
  43:CAN Library/CANScience.c **** 
  44:CAN Library/CANScience.c **** uint8_t GetScienceServoAngleFromPacket(CANPacket *packet){
 205              		.loc 1 44 0
 206              		.cfi_startproc
 207              		@ args = 0, pretend = 0, frame = 0
 208              		@ frame_needed = 0, uses_anonymous_args = 0
 209              		@ link register save eliminated.
 210              	.LVL23:
  45:CAN Library/CANScience.c **** 	return packet->data[2];
 211              		.loc 1 45 0
 212 0000 4079     		ldrb	r0, [r0, #5]
 213              	.LVL24:
  46:CAN Library/CANScience.c **** }
 214              		.loc 1 46 0
 215              		@ sp needed
 216 0002 7047     		bx	lr
 217              		.cfi_endproc
 218              	.LFE4:
 219              		.size	GetScienceServoAngleFromPacket, .-GetScienceServoAngleFromPacket
 220              		.section	.text.GetScienceMotorIDFromPacket,"ax",%progbits
 221              		.align	2
 222              		.global	GetScienceMotorIDFromPacket
 223              		.code	16
 224              		.thumb_func
 225              		.type	GetScienceMotorIDFromPacket, %function
 226              	GetScienceMotorIDFromPacket:
 227              	.LFB5:
  47:CAN Library/CANScience.c **** 
  48:CAN Library/CANScience.c **** uint8_t GetScienceMotorIDFromPacket(CANPacket *packet){
 228              		.loc 1 48 0
 229              		.cfi_startproc
 230              		@ args = 0, pretend = 0, frame = 0
 231              		@ frame_needed = 0, uses_anonymous_args = 0
 232              		@ link register save eliminated.
 233              	.LVL25:
  49:CAN Library/CANScience.c **** 	return packet->data[3];
 234              		.loc 1 49 0
 235 0000 8079     		ldrb	r0, [r0, #6]
 236              	.LVL26:
ARM GAS  C:\Users\casey\AppData\Local\Temp\ccPpDh9T.s 			page 6


  50:CAN Library/CANScience.c **** }
 237              		.loc 1 50 0
 238              		@ sp needed
 239 0002 7047     		bx	lr
 240              		.cfi_endproc
 241              	.LFE5:
 242              		.size	GetScienceMotorIDFromPacket, .-GetScienceMotorIDFromPacket
 243              		.section	.text.GetScienceServoIDFromPacket,"ax",%progbits
 244              		.align	2
 245              		.global	GetScienceServoIDFromPacket
 246              		.code	16
 247              		.thumb_func
 248              		.type	GetScienceServoIDFromPacket, %function
 249              	GetScienceServoIDFromPacket:
 250              	.LFB6:
  51:CAN Library/CANScience.c **** 
  52:CAN Library/CANScience.c **** uint8_t GetScienceServoIDFromPacket(CANPacket *packet){
 251              		.loc 1 52 0
 252              		.cfi_startproc
 253              		@ args = 0, pretend = 0, frame = 0
 254              		@ frame_needed = 0, uses_anonymous_args = 0
 255              		@ link register save eliminated.
 256              	.LVL27:
  53:CAN Library/CANScience.c **** 	return packet->data[1];
 257              		.loc 1 53 0
 258 0000 0079     		ldrb	r0, [r0, #4]
 259              	.LVL28:
  54:CAN Library/CANScience.c **** }
 260              		.loc 1 54 0
 261              		@ sp needed
 262 0002 7047     		bx	lr
 263              		.cfi_endproc
 264              	.LFE6:
 265              		.size	GetScienceServoIDFromPacket, .-GetScienceServoIDFromPacket
 266              		.text
 267              	.Letext0:
 268              		.file 2 "c:\\program files (x86)\\cypress\\psoc creator\\4.4\\psoc creator\\import\\gnu\\arm\\5.4.
 269              		.file 3 "c:\\program files (x86)\\cypress\\psoc creator\\4.4\\psoc creator\\import\\gnu\\arm\\5.4.
 270              		.file 4 "CAN Library\\CANPacket.h"
 271              		.file 5 "CAN Library\\CANCommon.h"