ARM GAS  C:\Users\casey\AppData\Local\Temp\ccka1yeh.s 			page 1


   1              		.syntax unified
   2              		.cpu cortex-m0
   3              		.fpu softvfp
   4              		.eabi_attribute 20, 1
   5              		.eabi_attribute 21, 1
   6              		.eabi_attribute 23, 3
   7              		.eabi_attribute 24, 1
   8              		.eabi_attribute 25, 1
   9              		.eabi_attribute 26, 1
  10              		.eabi_attribute 30, 1
  11              		.eabi_attribute 34, 0
  12              		.eabi_attribute 18, 4
  13              		.thumb
  14              		.syntax unified
  15              		.file	"cyfitter_cfg.c"
  16              		.text
  17              	.Ltext0:
  18              		.cfi_sections	.debug_frame
  19              		.section	.text.cfg_write_bytes32,"ax",%progbits
  20              		.align	2
  21              		.code	16
  22              		.thumb_func
  23              		.type	cfg_write_bytes32, %function
  24              	cfg_write_bytes32:
  25              	.LFB4:
  26              		.file 1 "Generated_Source\\PSoC4\\cyfitter_cfg.c"
   1:Generated_Source\PSoC4/cyfitter_cfg.c **** 
   2:Generated_Source\PSoC4/cyfitter_cfg.c **** /*******************************************************************************
   3:Generated_Source\PSoC4/cyfitter_cfg.c **** * File Name: cyfitter_cfg.c
   4:Generated_Source\PSoC4/cyfitter_cfg.c **** * 
   5:Generated_Source\PSoC4/cyfitter_cfg.c **** * PSoC Creator  4.4
   6:Generated_Source\PSoC4/cyfitter_cfg.c **** *
   7:Generated_Source\PSoC4/cyfitter_cfg.c **** * Description:
   8:Generated_Source\PSoC4/cyfitter_cfg.c **** * This file contains device initialization code.
   9:Generated_Source\PSoC4/cyfitter_cfg.c **** * Except for the user defined sections in CyClockStartupError(), this file should not be modified.
  10:Generated_Source\PSoC4/cyfitter_cfg.c **** * This file is automatically generated by PSoC Creator.
  11:Generated_Source\PSoC4/cyfitter_cfg.c **** *
  12:Generated_Source\PSoC4/cyfitter_cfg.c **** ********************************************************************************
  13:Generated_Source\PSoC4/cyfitter_cfg.c **** * Copyright (c) 2007-2020 Cypress Semiconductor.  All rights reserved.
  14:Generated_Source\PSoC4/cyfitter_cfg.c **** * You may use this file only in accordance with the license, terms, conditions, 
  15:Generated_Source\PSoC4/cyfitter_cfg.c **** * disclaimers, and limitations in the end user license agreement accompanying 
  16:Generated_Source\PSoC4/cyfitter_cfg.c **** * the software package with which this file was provided.
  17:Generated_Source\PSoC4/cyfitter_cfg.c **** ********************************************************************************/
  18:Generated_Source\PSoC4/cyfitter_cfg.c **** 
  19:Generated_Source\PSoC4/cyfitter_cfg.c **** #include <string.h>
  20:Generated_Source\PSoC4/cyfitter_cfg.c **** #include "cytypes.h"
  21:Generated_Source\PSoC4/cyfitter_cfg.c **** #include "cydevice_trm.h"
  22:Generated_Source\PSoC4/cyfitter_cfg.c **** #include "cyfitter.h"
  23:Generated_Source\PSoC4/cyfitter_cfg.c **** #include "CyLib.h"
  24:Generated_Source\PSoC4/cyfitter_cfg.c **** #include "CyLFClk.h"
  25:Generated_Source\PSoC4/cyfitter_cfg.c **** #include "cyfitter_cfg.h"
  26:Generated_Source\PSoC4/cyfitter_cfg.c **** #include "cyapicallbacks.h"
  27:Generated_Source\PSoC4/cyfitter_cfg.c **** 
  28:Generated_Source\PSoC4/cyfitter_cfg.c **** 
  29:Generated_Source\PSoC4/cyfitter_cfg.c **** #if defined(__GNUC__) || defined(__ARMCC_VERSION)
  30:Generated_Source\PSoC4/cyfitter_cfg.c ****     #define CYPACKED 
  31:Generated_Source\PSoC4/cyfitter_cfg.c ****     #define CYPACKED_ATTR __attribute__ ((packed))
ARM GAS  C:\Users\casey\AppData\Local\Temp\ccka1yeh.s 			page 2


  32:Generated_Source\PSoC4/cyfitter_cfg.c ****     #define CYALIGNED __attribute__ ((aligned))
  33:Generated_Source\PSoC4/cyfitter_cfg.c ****     #define CY_CFG_UNUSED __attribute__ ((unused))
  34:Generated_Source\PSoC4/cyfitter_cfg.c ****     #ifndef CY_CFG_SECTION
  35:Generated_Source\PSoC4/cyfitter_cfg.c ****         #define CY_CFG_SECTION __attribute__ ((section(".psocinit")))
  36:Generated_Source\PSoC4/cyfitter_cfg.c ****     #endif
  37:Generated_Source\PSoC4/cyfitter_cfg.c ****     
  38:Generated_Source\PSoC4/cyfitter_cfg.c ****     #if defined(__ARMCC_VERSION)
  39:Generated_Source\PSoC4/cyfitter_cfg.c ****         #define CY_CFG_MEMORY_BARRIER() __memory_changed()
  40:Generated_Source\PSoC4/cyfitter_cfg.c ****     #else
  41:Generated_Source\PSoC4/cyfitter_cfg.c ****         #define CY_CFG_MEMORY_BARRIER() __sync_synchronize()
  42:Generated_Source\PSoC4/cyfitter_cfg.c ****     #endif
  43:Generated_Source\PSoC4/cyfitter_cfg.c ****     
  44:Generated_Source\PSoC4/cyfitter_cfg.c **** #elif defined(__ICCARM__)
  45:Generated_Source\PSoC4/cyfitter_cfg.c ****     #include <intrinsics.h>
  46:Generated_Source\PSoC4/cyfitter_cfg.c **** 
  47:Generated_Source\PSoC4/cyfitter_cfg.c ****     #define CYPACKED __packed
  48:Generated_Source\PSoC4/cyfitter_cfg.c ****     #define CYPACKED_ATTR 
  49:Generated_Source\PSoC4/cyfitter_cfg.c ****     #define CYALIGNED _Pragma("data_alignment=4")
  50:Generated_Source\PSoC4/cyfitter_cfg.c ****     #define CY_CFG_UNUSED _Pragma("diag_suppress=Pe177")
  51:Generated_Source\PSoC4/cyfitter_cfg.c ****     #define CY_CFG_SECTION _Pragma("location=\".psocinit\"")
  52:Generated_Source\PSoC4/cyfitter_cfg.c ****     
  53:Generated_Source\PSoC4/cyfitter_cfg.c ****     #define CY_CFG_MEMORY_BARRIER() __DMB()
  54:Generated_Source\PSoC4/cyfitter_cfg.c ****     
  55:Generated_Source\PSoC4/cyfitter_cfg.c **** #else
  56:Generated_Source\PSoC4/cyfitter_cfg.c ****     #error Unsupported toolchain
  57:Generated_Source\PSoC4/cyfitter_cfg.c **** #endif
  58:Generated_Source\PSoC4/cyfitter_cfg.c **** 
  59:Generated_Source\PSoC4/cyfitter_cfg.c **** #ifndef CYCODE
  60:Generated_Source\PSoC4/cyfitter_cfg.c ****     #define CYCODE
  61:Generated_Source\PSoC4/cyfitter_cfg.c **** #endif
  62:Generated_Source\PSoC4/cyfitter_cfg.c **** #ifndef CYDATA
  63:Generated_Source\PSoC4/cyfitter_cfg.c ****     #define CYDATA
  64:Generated_Source\PSoC4/cyfitter_cfg.c **** #endif
  65:Generated_Source\PSoC4/cyfitter_cfg.c **** #ifndef CYFAR
  66:Generated_Source\PSoC4/cyfitter_cfg.c ****     #define CYFAR
  67:Generated_Source\PSoC4/cyfitter_cfg.c **** #endif
  68:Generated_Source\PSoC4/cyfitter_cfg.c **** #ifndef CYXDATA
  69:Generated_Source\PSoC4/cyfitter_cfg.c ****     #define CYXDATA
  70:Generated_Source\PSoC4/cyfitter_cfg.c **** #endif
  71:Generated_Source\PSoC4/cyfitter_cfg.c **** 
  72:Generated_Source\PSoC4/cyfitter_cfg.c **** 
  73:Generated_Source\PSoC4/cyfitter_cfg.c **** CY_CFG_UNUSED
  74:Generated_Source\PSoC4/cyfitter_cfg.c **** static void CYMEMZERO(void *s, size_t n);
  75:Generated_Source\PSoC4/cyfitter_cfg.c **** CY_CFG_UNUSED
  76:Generated_Source\PSoC4/cyfitter_cfg.c **** static void CYMEMZERO(void *s, size_t n)
  77:Generated_Source\PSoC4/cyfitter_cfg.c **** {
  78:Generated_Source\PSoC4/cyfitter_cfg.c **** 	(void)memset(s, 0, n);
  79:Generated_Source\PSoC4/cyfitter_cfg.c **** }
  80:Generated_Source\PSoC4/cyfitter_cfg.c **** CY_CFG_UNUSED
  81:Generated_Source\PSoC4/cyfitter_cfg.c **** static void CYCONFIGCPY(void *dest, const void *src, size_t n);
  82:Generated_Source\PSoC4/cyfitter_cfg.c **** CY_CFG_UNUSED
  83:Generated_Source\PSoC4/cyfitter_cfg.c **** static void CYCONFIGCPY(void *dest, const void *src, size_t n)
  84:Generated_Source\PSoC4/cyfitter_cfg.c **** {
  85:Generated_Source\PSoC4/cyfitter_cfg.c **** 	(void)memcpy(dest, src, n);
  86:Generated_Source\PSoC4/cyfitter_cfg.c **** }
  87:Generated_Source\PSoC4/cyfitter_cfg.c **** CY_CFG_UNUSED
  88:Generated_Source\PSoC4/cyfitter_cfg.c **** static void CYCONFIGCPYCODE(void *dest, const void *src, size_t n);
ARM GAS  C:\Users\casey\AppData\Local\Temp\ccka1yeh.s 			page 3


  89:Generated_Source\PSoC4/cyfitter_cfg.c **** CY_CFG_UNUSED
  90:Generated_Source\PSoC4/cyfitter_cfg.c **** static void CYCONFIGCPYCODE(void *dest, const void *src, size_t n)
  91:Generated_Source\PSoC4/cyfitter_cfg.c **** {
  92:Generated_Source\PSoC4/cyfitter_cfg.c **** 	(void)memcpy(dest, src, n);
  93:Generated_Source\PSoC4/cyfitter_cfg.c **** }
  94:Generated_Source\PSoC4/cyfitter_cfg.c **** 
  95:Generated_Source\PSoC4/cyfitter_cfg.c **** 
  96:Generated_Source\PSoC4/cyfitter_cfg.c **** 
  97:Generated_Source\PSoC4/cyfitter_cfg.c **** 
  98:Generated_Source\PSoC4/cyfitter_cfg.c **** /* Clock startup error codes                                                   */
  99:Generated_Source\PSoC4/cyfitter_cfg.c **** #define CYCLOCKSTART_NO_ERROR    0u
 100:Generated_Source\PSoC4/cyfitter_cfg.c **** #define CYCLOCKSTART_XTAL_ERROR  1u
 101:Generated_Source\PSoC4/cyfitter_cfg.c **** #define CYCLOCKSTART_32KHZ_ERROR 2u
 102:Generated_Source\PSoC4/cyfitter_cfg.c **** #define CYCLOCKSTART_PLL_ERROR   3u
 103:Generated_Source\PSoC4/cyfitter_cfg.c **** #define CYCLOCKSTART_FLL_ERROR   4u
 104:Generated_Source\PSoC4/cyfitter_cfg.c **** #define CYCLOCKSTART_WCO_ERROR   5u
 105:Generated_Source\PSoC4/cyfitter_cfg.c **** 
 106:Generated_Source\PSoC4/cyfitter_cfg.c **** 
 107:Generated_Source\PSoC4/cyfitter_cfg.c **** #ifdef CY_NEED_CYCLOCKSTARTUPERROR
 108:Generated_Source\PSoC4/cyfitter_cfg.c **** /*******************************************************************************
 109:Generated_Source\PSoC4/cyfitter_cfg.c **** * Function Name: CyClockStartupError
 110:Generated_Source\PSoC4/cyfitter_cfg.c **** ********************************************************************************
 111:Generated_Source\PSoC4/cyfitter_cfg.c **** * Summary:
 112:Generated_Source\PSoC4/cyfitter_cfg.c **** *  If an error is encountered during clock configuration (crystal startup error,
 113:Generated_Source\PSoC4/cyfitter_cfg.c **** *  PLL lock error, etc.), the system will end up here.  Unless reimplemented by
 114:Generated_Source\PSoC4/cyfitter_cfg.c **** *  the customer, this function will stop in an infinite loop.
 115:Generated_Source\PSoC4/cyfitter_cfg.c **** *
 116:Generated_Source\PSoC4/cyfitter_cfg.c **** * Parameters:
 117:Generated_Source\PSoC4/cyfitter_cfg.c **** *   void
 118:Generated_Source\PSoC4/cyfitter_cfg.c **** *
 119:Generated_Source\PSoC4/cyfitter_cfg.c **** * Return:
 120:Generated_Source\PSoC4/cyfitter_cfg.c **** *   void
 121:Generated_Source\PSoC4/cyfitter_cfg.c **** *
 122:Generated_Source\PSoC4/cyfitter_cfg.c **** *******************************************************************************/
 123:Generated_Source\PSoC4/cyfitter_cfg.c **** CY_CFG_UNUSED
 124:Generated_Source\PSoC4/cyfitter_cfg.c **** static void CyClockStartupError(uint8 errorCode);
 125:Generated_Source\PSoC4/cyfitter_cfg.c **** CY_CFG_UNUSED
 126:Generated_Source\PSoC4/cyfitter_cfg.c **** static void CyClockStartupError(uint8 errorCode)
 127:Generated_Source\PSoC4/cyfitter_cfg.c **** {
 128:Generated_Source\PSoC4/cyfitter_cfg.c ****     /* To remove the compiler warning if errorCode not used.                */
 129:Generated_Source\PSoC4/cyfitter_cfg.c ****     errorCode = errorCode;
 130:Generated_Source\PSoC4/cyfitter_cfg.c **** 
 131:Generated_Source\PSoC4/cyfitter_cfg.c ****     /* If we have a clock startup error (bad MHz crystal, PLL lock, etc.),  */
 132:Generated_Source\PSoC4/cyfitter_cfg.c ****     /* we will end up here to allow the customer to implement something to  */
 133:Generated_Source\PSoC4/cyfitter_cfg.c ****     /* deal with the clock condition.                                       */
 134:Generated_Source\PSoC4/cyfitter_cfg.c **** 
 135:Generated_Source\PSoC4/cyfitter_cfg.c **** #ifdef CY_CFG_CLOCK_STARTUP_ERROR_CALLBACK
 136:Generated_Source\PSoC4/cyfitter_cfg.c ****     CY_CFG_Clock_Startup_ErrorCallback();
 137:Generated_Source\PSoC4/cyfitter_cfg.c **** #else
 138:Generated_Source\PSoC4/cyfitter_cfg.c ****     /*  If not using CY_CFG_CLOCK_STARTUP_ERROR_CALLBACK, place your clock startup code here. */
 139:Generated_Source\PSoC4/cyfitter_cfg.c ****     /* `#START CyClockStartupError` */
 140:Generated_Source\PSoC4/cyfitter_cfg.c **** 
 141:Generated_Source\PSoC4/cyfitter_cfg.c **** 
 142:Generated_Source\PSoC4/cyfitter_cfg.c **** 
 143:Generated_Source\PSoC4/cyfitter_cfg.c ****     /* `#END` */
 144:Generated_Source\PSoC4/cyfitter_cfg.c **** 
 145:Generated_Source\PSoC4/cyfitter_cfg.c ****     while(1) {}
ARM GAS  C:\Users\casey\AppData\Local\Temp\ccka1yeh.s 			page 4


 146:Generated_Source\PSoC4/cyfitter_cfg.c **** #endif /* CY_CFG_CLOCK_STARTUP_ERROR_CALLBACK */
 147:Generated_Source\PSoC4/cyfitter_cfg.c **** }
 148:Generated_Source\PSoC4/cyfitter_cfg.c **** #endif
 149:Generated_Source\PSoC4/cyfitter_cfg.c **** 
 150:Generated_Source\PSoC4/cyfitter_cfg.c **** #define CY_CFG_BASE_ADDR_COUNT 17u
 151:Generated_Source\PSoC4/cyfitter_cfg.c **** CYPACKED typedef struct
 152:Generated_Source\PSoC4/cyfitter_cfg.c **** {
 153:Generated_Source\PSoC4/cyfitter_cfg.c **** 	uint8 offset;
 154:Generated_Source\PSoC4/cyfitter_cfg.c **** 	uint8 value;
 155:Generated_Source\PSoC4/cyfitter_cfg.c **** } CYPACKED_ATTR cy_cfg_addrvalue_t;
 156:Generated_Source\PSoC4/cyfitter_cfg.c **** 
 157:Generated_Source\PSoC4/cyfitter_cfg.c **** 
 158:Generated_Source\PSoC4/cyfitter_cfg.c **** 
 159:Generated_Source\PSoC4/cyfitter_cfg.c **** /*******************************************************************************
 160:Generated_Source\PSoC4/cyfitter_cfg.c **** * Function Name: cfg_write_bytes32
 161:Generated_Source\PSoC4/cyfitter_cfg.c **** ********************************************************************************
 162:Generated_Source\PSoC4/cyfitter_cfg.c **** * Summary:
 163:Generated_Source\PSoC4/cyfitter_cfg.c **** *  This function is used for setting up the chip configuration areas that
 164:Generated_Source\PSoC4/cyfitter_cfg.c **** *  contain relatively sparse data.
 165:Generated_Source\PSoC4/cyfitter_cfg.c **** *
 166:Generated_Source\PSoC4/cyfitter_cfg.c **** * Parameters:
 167:Generated_Source\PSoC4/cyfitter_cfg.c **** *   void
 168:Generated_Source\PSoC4/cyfitter_cfg.c **** *
 169:Generated_Source\PSoC4/cyfitter_cfg.c **** * Return:
 170:Generated_Source\PSoC4/cyfitter_cfg.c **** *   void
 171:Generated_Source\PSoC4/cyfitter_cfg.c **** *
 172:Generated_Source\PSoC4/cyfitter_cfg.c **** *******************************************************************************/
 173:Generated_Source\PSoC4/cyfitter_cfg.c **** static void cfg_write_bytes32(const uint32 addr_table[], const cy_cfg_addrvalue_t data_table[]);
 174:Generated_Source\PSoC4/cyfitter_cfg.c **** static void cfg_write_bytes32(const uint32 addr_table[], const cy_cfg_addrvalue_t data_table[])
 175:Generated_Source\PSoC4/cyfitter_cfg.c **** {
  27              		.loc 1 175 0
  28              		.cfi_startproc
  29              		@ args = 0, pretend = 0, frame = 0
  30              		@ frame_needed = 0, uses_anonymous_args = 0
  31              	.LVL0:
  32 0000 F0B5     		push	{r4, r5, r6, r7, lr}
  33              		.cfi_def_cfa_offset 20
  34              		.cfi_offset 4, -20
  35              		.cfi_offset 5, -16
  36              		.cfi_offset 6, -12
  37              		.cfi_offset 7, -8
  38              		.cfi_offset 14, -4
  39              	.LVL1:
 176:Generated_Source\PSoC4/cyfitter_cfg.c **** 	/* For 32-bit little-endian architectures */
 177:Generated_Source\PSoC4/cyfitter_cfg.c **** 	uint32 i, j = 0u;
  40              		.loc 1 177 0
  41 0002 0025     		movs	r5, #0
 178:Generated_Source\PSoC4/cyfitter_cfg.c **** 	for (i = 0u; i < CY_CFG_BASE_ADDR_COUNT; i++)
  42              		.loc 1 178 0
  43 0004 0027     		movs	r7, #0
  44 0006 11E0     		b	.L2
  45              	.LVL2:
  46              	.L5:
  47              	.LBB2:
 179:Generated_Source\PSoC4/cyfitter_cfg.c **** 	{
 180:Generated_Source\PSoC4/cyfitter_cfg.c **** 		uint32 baseAddr = addr_table[i];
  48              		.loc 1 180 0
ARM GAS  C:\Users\casey\AppData\Local\Temp\ccka1yeh.s 			page 5


  49 0008 BB00     		lsls	r3, r7, #2
  50 000a C658     		ldr	r6, [r0, r3]
  51              	.LVL3:
 181:Generated_Source\PSoC4/cyfitter_cfg.c **** 		uint8 count = (uint8)baseAddr;
  52              		.loc 1 181 0
  53 000c F3B2     		uxtb	r3, r6
  54              	.LVL4:
 182:Generated_Source\PSoC4/cyfitter_cfg.c **** 		baseAddr &= 0xFFFFFF00u;
  55              		.loc 1 182 0
  56 000e FF22     		movs	r2, #255
  57 0010 9643     		bics	r6, r2
  58              	.LVL5:
 183:Generated_Source\PSoC4/cyfitter_cfg.c **** 		while (count != 0u)
  59              		.loc 1 183 0
  60 0012 08E0     		b	.L3
  61              	.L4:
 184:Generated_Source\PSoC4/cyfitter_cfg.c **** 		{
 185:Generated_Source\PSoC4/cyfitter_cfg.c **** 			CY_SET_REG8((void *)(baseAddr + data_table[j].offset), data_table[j].value);
  62              		.loc 1 185 0
  63 0014 6A00     		lsls	r2, r5, #1
  64 0016 8A18     		adds	r2, r1, r2
  65 0018 1478     		ldrb	r4, [r2]
  66 001a A419     		adds	r4, r4, r6
  67 001c 5278     		ldrb	r2, [r2, #1]
  68 001e 2270     		strb	r2, [r4]
 186:Generated_Source\PSoC4/cyfitter_cfg.c **** 			j++;
  69              		.loc 1 186 0
  70 0020 0135     		adds	r5, r5, #1
  71              	.LVL6:
 187:Generated_Source\PSoC4/cyfitter_cfg.c **** 			count--;
  72              		.loc 1 187 0
  73 0022 013B     		subs	r3, r3, #1
  74              	.LVL7:
  75 0024 DBB2     		uxtb	r3, r3
  76              	.LVL8:
  77              	.L3:
 183:Generated_Source\PSoC4/cyfitter_cfg.c **** 		{
  78              		.loc 1 183 0
  79 0026 002B     		cmp	r3, #0
  80 0028 F4D1     		bne	.L4
  81              	.LBE2:
 178:Generated_Source\PSoC4/cyfitter_cfg.c **** 	{
  82              		.loc 1 178 0 discriminator 2
  83 002a 0137     		adds	r7, r7, #1
  84              	.LVL9:
  85              	.L2:
 178:Generated_Source\PSoC4/cyfitter_cfg.c **** 	{
  86              		.loc 1 178 0 is_stmt 0 discriminator 1
  87 002c 102F     		cmp	r7, #16
  88 002e EBD9     		bls	.L5
 188:Generated_Source\PSoC4/cyfitter_cfg.c **** 		}
 189:Generated_Source\PSoC4/cyfitter_cfg.c **** 	}
 190:Generated_Source\PSoC4/cyfitter_cfg.c **** }
  89              		.loc 1 190 0 is_stmt 1
  90              		@ sp needed
  91              	.LVL10:
  92              	.LVL11:
ARM GAS  C:\Users\casey\AppData\Local\Temp\ccka1yeh.s 			page 6


  93 0030 F0BD     		pop	{r4, r5, r6, r7, pc}
  94              		.cfi_endproc
  95              	.LFE4:
  96              		.size	cfg_write_bytes32, .-cfg_write_bytes32
  97 0032 C046     		.section	.text.AnalogSetDefault,"ax",%progbits
  98              		.align	2
  99              		.code	16
 100              		.thumb_func
 101              		.type	AnalogSetDefault, %function
 102              	AnalogSetDefault:
 103              	.LFB6:
 191:Generated_Source\PSoC4/cyfitter_cfg.c **** 
 192:Generated_Source\PSoC4/cyfitter_cfg.c **** 
 193:Generated_Source\PSoC4/cyfitter_cfg.c **** /*******************************************************************************
 194:Generated_Source\PSoC4/cyfitter_cfg.c **** * Function Name: ClockSetup
 195:Generated_Source\PSoC4/cyfitter_cfg.c **** ********************************************************************************
 196:Generated_Source\PSoC4/cyfitter_cfg.c **** *
 197:Generated_Source\PSoC4/cyfitter_cfg.c **** * Summary:
 198:Generated_Source\PSoC4/cyfitter_cfg.c **** *   Performs the initialization of all of the clocks in the device based on the
 199:Generated_Source\PSoC4/cyfitter_cfg.c **** *   settings in the Clock tab of the DWR.  This includes enabling the requested
 200:Generated_Source\PSoC4/cyfitter_cfg.c **** *   clocks and setting the necessary dividers to produce the desired frequency. 
 201:Generated_Source\PSoC4/cyfitter_cfg.c **** *
 202:Generated_Source\PSoC4/cyfitter_cfg.c **** * Parameters:
 203:Generated_Source\PSoC4/cyfitter_cfg.c **** *   void
 204:Generated_Source\PSoC4/cyfitter_cfg.c **** *
 205:Generated_Source\PSoC4/cyfitter_cfg.c **** * Return:
 206:Generated_Source\PSoC4/cyfitter_cfg.c **** *   void
 207:Generated_Source\PSoC4/cyfitter_cfg.c **** *
 208:Generated_Source\PSoC4/cyfitter_cfg.c **** *******************************************************************************/
 209:Generated_Source\PSoC4/cyfitter_cfg.c **** static void ClockSetup(void);
 210:Generated_Source\PSoC4/cyfitter_cfg.c **** CY_CFG_SECTION
 211:Generated_Source\PSoC4/cyfitter_cfg.c **** static void ClockSetup(void)
 212:Generated_Source\PSoC4/cyfitter_cfg.c **** {
 213:Generated_Source\PSoC4/cyfitter_cfg.c **** 
 214:Generated_Source\PSoC4/cyfitter_cfg.c **** 	/* Set Flash Cycles based on max possible frequency in case a glitch occurs during ClockSetup(). *
 215:Generated_Source\PSoC4/cyfitter_cfg.c **** 	CY_SET_REG32((void CYXDATA *)(CYREG_CPUSS_FLASH_CTL), (0x0012u));
 216:Generated_Source\PSoC4/cyfitter_cfg.c **** 	/* Setup and trim IMO based on desired frequency. */
 217:Generated_Source\PSoC4/cyfitter_cfg.c **** 	CySysClkWriteImoFreq(48u);
 218:Generated_Source\PSoC4/cyfitter_cfg.c **** 	/* CYDEV_CLK_ILO_CONFIG Starting address: CYDEV_CLK_ILO_CONFIG */
 219:Generated_Source\PSoC4/cyfitter_cfg.c **** 	CY_SET_REG32((void *)(CYREG_CLK_ILO_CONFIG), 0x80000006u);
 220:Generated_Source\PSoC4/cyfitter_cfg.c **** 
 221:Generated_Source\PSoC4/cyfitter_cfg.c **** 
 222:Generated_Source\PSoC4/cyfitter_cfg.c **** 	/* Setup phase aligned clocks */
 223:Generated_Source\PSoC4/cyfitter_cfg.c **** 	CY_SET_REG32((void *)CYREG_PERI_DIV_16_CTL0, 0x00000000u);
 224:Generated_Source\PSoC4/cyfitter_cfg.c **** 	CY_SET_REG32((void *)CYREG_PERI_DIV_CMD, 0x8000FF40u);
 225:Generated_Source\PSoC4/cyfitter_cfg.c **** 	CY_SET_REG32((void *)CYREG_PERI_DIV_16_CTL2, 0x00002F00u);
 226:Generated_Source\PSoC4/cyfitter_cfg.c **** 	CY_SET_REG32((void *)CYREG_PERI_DIV_CMD, 0x8000FF42u);
 227:Generated_Source\PSoC4/cyfitter_cfg.c **** 	CY_SET_REG32((void *)CYREG_PERI_DIV_16_CTL1, 0x00002200u);
 228:Generated_Source\PSoC4/cyfitter_cfg.c **** 	CY_SET_REG32((void *)CYREG_PERI_DIV_CMD, 0x8000FF41u);
 229:Generated_Source\PSoC4/cyfitter_cfg.c **** 
 230:Generated_Source\PSoC4/cyfitter_cfg.c **** 	/* CYDEV_CLK_IMO_CONFIG Starting address: CYDEV_CLK_IMO_CONFIG */
 231:Generated_Source\PSoC4/cyfitter_cfg.c **** 	CY_SET_REG32((void *)(CYREG_CLK_IMO_CONFIG), 0x80000000u);
 232:Generated_Source\PSoC4/cyfitter_cfg.c **** 
 233:Generated_Source\PSoC4/cyfitter_cfg.c **** 	/* CYDEV_CLK_SELECT Starting address: CYDEV_CLK_SELECT */
 234:Generated_Source\PSoC4/cyfitter_cfg.c **** 	CY_SET_REG32((void *)(CYREG_CLK_SELECT), 0x00040000u);
 235:Generated_Source\PSoC4/cyfitter_cfg.c **** 
 236:Generated_Source\PSoC4/cyfitter_cfg.c **** 	/* CYDEV_PERI_PCLK_CTL19 Starting address: CYDEV_PERI_PCLK_CTL19 */
ARM GAS  C:\Users\casey\AppData\Local\Temp\ccka1yeh.s 			page 7


 237:Generated_Source\PSoC4/cyfitter_cfg.c **** 	CY_SET_REG32((void *)(CYREG_PERI_PCLK_CTL19), 0x00000042u);
 238:Generated_Source\PSoC4/cyfitter_cfg.c **** 
 239:Generated_Source\PSoC4/cyfitter_cfg.c **** 	/* CYDEV_PERI_PCLK_CTL2 Starting address: CYDEV_PERI_PCLK_CTL2 */
 240:Generated_Source\PSoC4/cyfitter_cfg.c **** 	CY_SET_REG32((void *)(CYREG_PERI_PCLK_CTL2), 0x00000041u);
 241:Generated_Source\PSoC4/cyfitter_cfg.c **** 
 242:Generated_Source\PSoC4/cyfitter_cfg.c **** 	(void)CyIntSetVector(8u, &CySysWdtIsr);
 243:Generated_Source\PSoC4/cyfitter_cfg.c **** 	CyIntEnable(8u);
 244:Generated_Source\PSoC4/cyfitter_cfg.c **** 	CY_SET_REG32((void *)(CYREG_WDT_CONFIG), 0x00000000u);
 245:Generated_Source\PSoC4/cyfitter_cfg.c **** }
 246:Generated_Source\PSoC4/cyfitter_cfg.c **** 
 247:Generated_Source\PSoC4/cyfitter_cfg.c **** 
 248:Generated_Source\PSoC4/cyfitter_cfg.c **** /* Analog API Functions */
 249:Generated_Source\PSoC4/cyfitter_cfg.c **** 
 250:Generated_Source\PSoC4/cyfitter_cfg.c **** 
 251:Generated_Source\PSoC4/cyfitter_cfg.c **** /*******************************************************************************
 252:Generated_Source\PSoC4/cyfitter_cfg.c **** * Function Name: AnalogSetDefault
 253:Generated_Source\PSoC4/cyfitter_cfg.c **** ********************************************************************************
 254:Generated_Source\PSoC4/cyfitter_cfg.c **** *
 255:Generated_Source\PSoC4/cyfitter_cfg.c **** * Summary:
 256:Generated_Source\PSoC4/cyfitter_cfg.c **** *  Sets up the analog portions of the chip to default values based on chip
 257:Generated_Source\PSoC4/cyfitter_cfg.c **** *  configuration options from the project.
 258:Generated_Source\PSoC4/cyfitter_cfg.c **** *
 259:Generated_Source\PSoC4/cyfitter_cfg.c **** * Parameters:
 260:Generated_Source\PSoC4/cyfitter_cfg.c **** *  void
 261:Generated_Source\PSoC4/cyfitter_cfg.c **** *
 262:Generated_Source\PSoC4/cyfitter_cfg.c **** * Return:
 263:Generated_Source\PSoC4/cyfitter_cfg.c **** *  void
 264:Generated_Source\PSoC4/cyfitter_cfg.c **** *
 265:Generated_Source\PSoC4/cyfitter_cfg.c **** *******************************************************************************/
 266:Generated_Source\PSoC4/cyfitter_cfg.c **** static void AnalogSetDefault(void);
 267:Generated_Source\PSoC4/cyfitter_cfg.c **** static void AnalogSetDefault(void)
 268:Generated_Source\PSoC4/cyfitter_cfg.c **** {
 104              		.loc 1 268 0
 105              		.cfi_startproc
 106              		@ args = 0, pretend = 0, frame = 0
 107              		@ frame_needed = 0, uses_anonymous_args = 0
 108              		@ link register save eliminated.
 269:Generated_Source\PSoC4/cyfitter_cfg.c **** 	CY_SET_XTND_REG32((void CYFAR *)CYREG_CTBM0_DFT_CTRL, 0x00000003u);
 109              		.loc 1 269 0
 110 0000 0323     		movs	r3, #3
 111 0002 044A     		ldr	r2, .L7
 112 0004 1360     		str	r3, [r2]
 270:Generated_Source\PSoC4/cyfitter_cfg.c **** 	CY_SET_XTND_REG32((void CYFAR *)CYREG_CTBM1_DFT_CTRL, 0x00000003u);
 113              		.loc 1 270 0
 114 0006 044A     		ldr	r2, .L7+4
 115 0008 1360     		str	r3, [r2]
 271:Generated_Source\PSoC4/cyfitter_cfg.c **** 	CY_SET_XTND_REG32((void CYFAR *)CYREG_PASS_DSAB_DSAB_CTRL, 0x00000000u);
 116              		.loc 1 271 0
 117 000a 0022     		movs	r2, #0
 118 000c 034B     		ldr	r3, .L7+8
 119 000e 1A60     		str	r2, [r3]
 272:Generated_Source\PSoC4/cyfitter_cfg.c **** }
 120              		.loc 1 272 0
 121              		@ sp needed
 122 0010 7047     		bx	lr
 123              	.L8:
 124 0012 C046     		.align	2
ARM GAS  C:\Users\casey\AppData\Local\Temp\ccka1yeh.s 			page 8


 125              	.L7:
 126 0014 30003040 		.word	1076887600
 127 0018 30003140 		.word	1076953136
 128 001c 000E3F40 		.word	1077874176
 129              		.cfi_endproc
 130              	.LFE6:
 131              		.size	AnalogSetDefault, .-AnalogSetDefault
 132              		.section	.text.CYMEMZERO,"ax",%progbits
 133              		.align	2
 134              		.code	16
 135              		.thumb_func
 136              		.type	CYMEMZERO, %function
 137              	CYMEMZERO:
 138              	.LFB1:
  77:Generated_Source\PSoC4/cyfitter_cfg.c **** 	(void)memset(s, 0, n);
 139              		.loc 1 77 0
 140              		.cfi_startproc
 141              		@ args = 0, pretend = 0, frame = 0
 142              		@ frame_needed = 0, uses_anonymous_args = 0
 143              	.LVL12:
 144 0000 10B5     		push	{r4, lr}
 145              		.cfi_def_cfa_offset 8
 146              		.cfi_offset 4, -8
 147              		.cfi_offset 14, -4
 148 0002 0A00     		movs	r2, r1
  78:Generated_Source\PSoC4/cyfitter_cfg.c **** }
 149              		.loc 1 78 0
 150 0004 0021     		movs	r1, #0
 151              	.LVL13:
 152 0006 FFF7FEFF 		bl	memset
 153              	.LVL14:
  79:Generated_Source\PSoC4/cyfitter_cfg.c **** CY_CFG_UNUSED
 154              		.loc 1 79 0
 155              		@ sp needed
 156 000a 10BD     		pop	{r4, pc}
 157              		.cfi_endproc
 158              	.LFE1:
 159              		.size	CYMEMZERO, .-CYMEMZERO
 160              		.section	.text.CYCONFIGCPYCODE,"ax",%progbits
 161              		.align	2
 162              		.code	16
 163              		.thumb_func
 164              		.type	CYCONFIGCPYCODE, %function
 165              	CYCONFIGCPYCODE:
 166              	.LFB3:
  91:Generated_Source\PSoC4/cyfitter_cfg.c **** 	(void)memcpy(dest, src, n);
 167              		.loc 1 91 0
 168              		.cfi_startproc
 169              		@ args = 0, pretend = 0, frame = 0
 170              		@ frame_needed = 0, uses_anonymous_args = 0
 171              	.LVL15:
 172 0000 10B5     		push	{r4, lr}
 173              		.cfi_def_cfa_offset 8
 174              		.cfi_offset 4, -8
 175              		.cfi_offset 14, -4
  92:Generated_Source\PSoC4/cyfitter_cfg.c **** }
 176              		.loc 1 92 0
ARM GAS  C:\Users\casey\AppData\Local\Temp\ccka1yeh.s 			page 9


 177 0002 FFF7FEFF 		bl	memcpy
 178              	.LVL16:
  93:Generated_Source\PSoC4/cyfitter_cfg.c **** 
 179              		.loc 1 93 0
 180              		@ sp needed
 181 0006 10BD     		pop	{r4, pc}
 182              		.cfi_endproc
 183              	.LFE3:
 184              		.size	CYCONFIGCPYCODE, .-CYCONFIGCPYCODE
 185              		.section	.psocinit,"ax",%progbits
 186              		.align	2
 187              		.code	16
 188              		.thumb_func
 189              		.type	ClockSetup, %function
 190              	ClockSetup:
 191              	.LFB5:
 212:Generated_Source\PSoC4/cyfitter_cfg.c **** 
 192              		.loc 1 212 0
 193              		.cfi_startproc
 194              		@ args = 0, pretend = 0, frame = 0
 195              		@ frame_needed = 0, uses_anonymous_args = 0
 196 0000 10B5     		push	{r4, lr}
 197              		.cfi_def_cfa_offset 8
 198              		.cfi_offset 4, -8
 199              		.cfi_offset 14, -4
 215:Generated_Source\PSoC4/cyfitter_cfg.c **** 	/* Setup and trim IMO based on desired frequency. */
 200              		.loc 1 215 0
 201 0002 1222     		movs	r2, #18
 202 0004 184B     		ldr	r3, .L12
 203 0006 1A60     		str	r2, [r3]
 217:Generated_Source\PSoC4/cyfitter_cfg.c **** 	/* CYDEV_CLK_ILO_CONFIG Starting address: CYDEV_CLK_ILO_CONFIG */
 204              		.loc 1 217 0
 205 0008 3020     		movs	r0, #48
 206 000a FFF7FEFF 		bl	CySysClkWriteImoFreq
 207              	.LVL17:
 219:Generated_Source\PSoC4/cyfitter_cfg.c **** 
 208              		.loc 1 219 0
 209 000e 174A     		ldr	r2, .L12+4
 210 0010 174B     		ldr	r3, .L12+8
 211 0012 1A60     		str	r2, [r3]
 223:Generated_Source\PSoC4/cyfitter_cfg.c **** 	CY_SET_REG32((void *)CYREG_PERI_DIV_CMD, 0x8000FF40u);
 212              		.loc 1 223 0
 213 0014 0024     		movs	r4, #0
 214 0016 174B     		ldr	r3, .L12+12
 215 0018 1C60     		str	r4, [r3]
 224:Generated_Source\PSoC4/cyfitter_cfg.c **** 	CY_SET_REG32((void *)CYREG_PERI_DIV_16_CTL2, 0x00002F00u);
 216              		.loc 1 224 0
 217 001a 174B     		ldr	r3, .L12+16
 218 001c 174A     		ldr	r2, .L12+20
 219 001e 1A60     		str	r2, [r3]
 225:Generated_Source\PSoC4/cyfitter_cfg.c **** 	CY_SET_REG32((void *)CYREG_PERI_DIV_CMD, 0x8000FF42u);
 220              		.loc 1 225 0
 221 0020 BC21     		movs	r1, #188
 222 0022 8901     		lsls	r1, r1, #6
 223 0024 164A     		ldr	r2, .L12+24
 224 0026 1160     		str	r1, [r2]
 226:Generated_Source\PSoC4/cyfitter_cfg.c **** 	CY_SET_REG32((void *)CYREG_PERI_DIV_16_CTL1, 0x00002200u);
ARM GAS  C:\Users\casey\AppData\Local\Temp\ccka1yeh.s 			page 10


 225              		.loc 1 226 0
 226 0028 164A     		ldr	r2, .L12+28
 227 002a 1A60     		str	r2, [r3]
 227:Generated_Source\PSoC4/cyfitter_cfg.c **** 	CY_SET_REG32((void *)CYREG_PERI_DIV_CMD, 0x8000FF41u);
 228              		.loc 1 227 0
 229 002c 8821     		movs	r1, #136
 230 002e 8901     		lsls	r1, r1, #6
 231 0030 154A     		ldr	r2, .L12+32
 232 0032 1160     		str	r1, [r2]
 228:Generated_Source\PSoC4/cyfitter_cfg.c **** 
 233              		.loc 1 228 0
 234 0034 154A     		ldr	r2, .L12+36
 235 0036 1A60     		str	r2, [r3]
 231:Generated_Source\PSoC4/cyfitter_cfg.c **** 
 236              		.loc 1 231 0
 237 0038 8022     		movs	r2, #128
 238 003a 1206     		lsls	r2, r2, #24
 239 003c 144B     		ldr	r3, .L12+40
 240 003e 1A60     		str	r2, [r3]
 234:Generated_Source\PSoC4/cyfitter_cfg.c **** 
 241              		.loc 1 234 0
 242 0040 8022     		movs	r2, #128
 243 0042 D202     		lsls	r2, r2, #11
 244 0044 134B     		ldr	r3, .L12+44
 245 0046 1A60     		str	r2, [r3]
 237:Generated_Source\PSoC4/cyfitter_cfg.c **** 
 246              		.loc 1 237 0
 247 0048 4222     		movs	r2, #66
 248 004a 134B     		ldr	r3, .L12+48
 249 004c 1A60     		str	r2, [r3]
 240:Generated_Source\PSoC4/cyfitter_cfg.c **** 
 250              		.loc 1 240 0
 251 004e 013A     		subs	r2, r2, #1
 252 0050 124B     		ldr	r3, .L12+52
 253 0052 1A60     		str	r2, [r3]
 242:Generated_Source\PSoC4/cyfitter_cfg.c **** 	CyIntEnable(8u);
 254              		.loc 1 242 0
 255 0054 1249     		ldr	r1, .L12+56
 256 0056 0820     		movs	r0, #8
 257 0058 FFF7FEFF 		bl	CyIntSetVector
 258              	.LVL18:
 243:Generated_Source\PSoC4/cyfitter_cfg.c **** 	CY_SET_REG32((void *)(CYREG_WDT_CONFIG), 0x00000000u);
 259              		.loc 1 243 0
 260 005c 0820     		movs	r0, #8
 261 005e FFF7FEFF 		bl	CyIntEnable
 262              	.LVL19:
 244:Generated_Source\PSoC4/cyfitter_cfg.c **** }
 263              		.loc 1 244 0
 264 0062 104B     		ldr	r3, .L12+60
 265 0064 1C60     		str	r4, [r3]
 245:Generated_Source\PSoC4/cyfitter_cfg.c **** 
 266              		.loc 1 245 0
 267              		@ sp needed
 268 0066 10BD     		pop	{r4, pc}
 269              	.L13:
 270              		.align	2
 271              	.L12:
ARM GAS  C:\Users\casey\AppData\Local\Temp\ccka1yeh.s 			page 11


 272 0068 30001040 		.word	1074790448
 273 006c 06000080 		.word	-2147483642
 274 0070 04010B40 		.word	1074462980
 275 0074 00030140 		.word	1073808128
 276 0078 00000140 		.word	1073807360
 277 007c 40FF0080 		.word	-2147418304
 278 0080 08030140 		.word	1073808136
 279 0084 42FF0080 		.word	-2147418302
 280 0088 04030140 		.word	1073808132
 281 008c 41FF0080 		.word	-2147418303
 282 0090 08010B40 		.word	1074462984
 283 0094 00010B40 		.word	1074462976
 284 0098 4C010140 		.word	1073807692
 285 009c 08010140 		.word	1073807624
 286 00a0 00000000 		.word	CySysWdtIsr
 287 00a4 0C020B40 		.word	1074463244
 288              		.cfi_endproc
 289              	.LFE5:
 290              		.size	ClockSetup, .-ClockSetup
 291              		.align	2
 292              		.global	cyfitter_cfg
 293              		.code	16
 294              		.thumb_func
 295              		.type	cyfitter_cfg, %function
 296              	cyfitter_cfg:
 297              	.LFB7:
 273:Generated_Source\PSoC4/cyfitter_cfg.c **** 
 274:Generated_Source\PSoC4/cyfitter_cfg.c **** 
 275:Generated_Source\PSoC4/cyfitter_cfg.c **** 
 276:Generated_Source\PSoC4/cyfitter_cfg.c **** 
 277:Generated_Source\PSoC4/cyfitter_cfg.c **** /*******************************************************************************
 278:Generated_Source\PSoC4/cyfitter_cfg.c **** * Function Name: cyfitter_cfg
 279:Generated_Source\PSoC4/cyfitter_cfg.c **** ********************************************************************************
 280:Generated_Source\PSoC4/cyfitter_cfg.c **** * Summary:
 281:Generated_Source\PSoC4/cyfitter_cfg.c **** *  This function is called by the start-up code for the selected device. It
 282:Generated_Source\PSoC4/cyfitter_cfg.c **** *  performs all of the necessary device configuration based on the design
 283:Generated_Source\PSoC4/cyfitter_cfg.c **** *  settings.  This includes settings from the Design Wide Resources (DWR) such
 284:Generated_Source\PSoC4/cyfitter_cfg.c **** *  as Clocks and Pins as well as any component configuration that is necessary.
 285:Generated_Source\PSoC4/cyfitter_cfg.c **** *
 286:Generated_Source\PSoC4/cyfitter_cfg.c **** * Parameters:
 287:Generated_Source\PSoC4/cyfitter_cfg.c **** *   void
 288:Generated_Source\PSoC4/cyfitter_cfg.c **** *
 289:Generated_Source\PSoC4/cyfitter_cfg.c **** * Return:
 290:Generated_Source\PSoC4/cyfitter_cfg.c **** *   void
 291:Generated_Source\PSoC4/cyfitter_cfg.c **** *
 292:Generated_Source\PSoC4/cyfitter_cfg.c **** *******************************************************************************/
 293:Generated_Source\PSoC4/cyfitter_cfg.c **** CY_CFG_SECTION
 294:Generated_Source\PSoC4/cyfitter_cfg.c **** void cyfitter_cfg(void)
 295:Generated_Source\PSoC4/cyfitter_cfg.c **** {
 298              		.loc 1 295 0
 299              		.cfi_startproc
 300              		@ args = 0, pretend = 0, frame = 0
 301              		@ frame_needed = 0, uses_anonymous_args = 0
 302 00a8 70B5     		push	{r4, r5, r6, lr}
 303              		.cfi_def_cfa_offset 16
 304              		.cfi_offset 4, -16
 305              		.cfi_offset 5, -12
ARM GAS  C:\Users\casey\AppData\Local\Temp\ccka1yeh.s 			page 12


 306              		.cfi_offset 6, -8
 307              		.cfi_offset 14, -4
 296:Generated_Source\PSoC4/cyfitter_cfg.c **** 	/* Disable interrupts by default. Let user enable if/when they want. */
 297:Generated_Source\PSoC4/cyfitter_cfg.c **** 	CyGlobalIntDisable;
 308              		.loc 1 297 0
 309              		.syntax divided
 310              	@ 297 "Generated_Source\PSoC4\cyfitter_cfg.c" 1
 311 00aa 72B6     		CPSID   i
 312              	@ 0 "" 2
 298:Generated_Source\PSoC4/cyfitter_cfg.c **** 
 299:Generated_Source\PSoC4/cyfitter_cfg.c **** 	/* Enable the clock in the interrupt controller for the routed interrupts */
 300:Generated_Source\PSoC4/cyfitter_cfg.c **** 	CY_SET_REG8((void *)CYREG_UDB_UDB_INT_CLK_CTL, 0x01u);
 313              		.loc 1 300 0
 314              		.thumb
 315              		.syntax unified
 316 00ac 0122     		movs	r2, #1
 317 00ae 514B     		ldr	r3, .L19
 318 00b0 1A70     		strb	r2, [r3]
 319              	.LVL20:
 320              	.LBB3:
 301:Generated_Source\PSoC4/cyfitter_cfg.c **** 	{
 302:Generated_Source\PSoC4/cyfitter_cfg.c **** 		static const uint32 CYCODE cy_cfg_addr_table[] = {
 303:Generated_Source\PSoC4/cyfitter_cfg.c **** 			0x400F0001u, /* Base address: 0x400F0000 Count: 1 */
 304:Generated_Source\PSoC4/cyfitter_cfg.c **** 			0x400F303Eu, /* Base address: 0x400F3000 Count: 62 */
 305:Generated_Source\PSoC4/cyfitter_cfg.c **** 			0x400F3133u, /* Base address: 0x400F3100 Count: 51 */
 306:Generated_Source\PSoC4/cyfitter_cfg.c **** 			0x400F3242u, /* Base address: 0x400F3200 Count: 66 */
 307:Generated_Source\PSoC4/cyfitter_cfg.c **** 			0x400F334Bu, /* Base address: 0x400F3300 Count: 75 */
 308:Generated_Source\PSoC4/cyfitter_cfg.c **** 			0x400F346Cu, /* Base address: 0x400F3400 Count: 108 */
 309:Generated_Source\PSoC4/cyfitter_cfg.c **** 			0x400F3551u, /* Base address: 0x400F3500 Count: 81 */
 310:Generated_Source\PSoC4/cyfitter_cfg.c **** 			0x400F3634u, /* Base address: 0x400F3600 Count: 52 */
 311:Generated_Source\PSoC4/cyfitter_cfg.c **** 			0x400F3747u, /* Base address: 0x400F3700 Count: 71 */
 312:Generated_Source\PSoC4/cyfitter_cfg.c **** 			0x400F400Au, /* Base address: 0x400F4000 Count: 10 */
 313:Generated_Source\PSoC4/cyfitter_cfg.c **** 			0x400F410Fu, /* Base address: 0x400F4100 Count: 15 */
 314:Generated_Source\PSoC4/cyfitter_cfg.c **** 			0x400F4206u, /* Base address: 0x400F4200 Count: 6 */
 315:Generated_Source\PSoC4/cyfitter_cfg.c **** 			0x400F4305u, /* Base address: 0x400F4300 Count: 5 */
 316:Generated_Source\PSoC4/cyfitter_cfg.c **** 			0x400F4502u, /* Base address: 0x400F4500 Count: 2 */
 317:Generated_Source\PSoC4/cyfitter_cfg.c **** 			0x400F4609u, /* Base address: 0x400F4600 Count: 9 */
 318:Generated_Source\PSoC4/cyfitter_cfg.c **** 			0x400F4707u, /* Base address: 0x400F4700 Count: 7 */
 319:Generated_Source\PSoC4/cyfitter_cfg.c **** 			0x400F6003u, /* Base address: 0x400F6000 Count: 3 */
 320:Generated_Source\PSoC4/cyfitter_cfg.c **** 		};
 321:Generated_Source\PSoC4/cyfitter_cfg.c **** 
 322:Generated_Source\PSoC4/cyfitter_cfg.c **** 		static const cy_cfg_addrvalue_t CYCODE cy_cfg_data_table[] = {
 323:Generated_Source\PSoC4/cyfitter_cfg.c **** 			{0x83u, 0x6Fu},
 324:Generated_Source\PSoC4/cyfitter_cfg.c **** 			{0x01u, 0x05u},
 325:Generated_Source\PSoC4/cyfitter_cfg.c **** 			{0x02u, 0x01u},
 326:Generated_Source\PSoC4/cyfitter_cfg.c **** 			{0x05u, 0x01u},
 327:Generated_Source\PSoC4/cyfitter_cfg.c **** 			{0x06u, 0x01u},
 328:Generated_Source\PSoC4/cyfitter_cfg.c **** 			{0x09u, 0x02u},
 329:Generated_Source\PSoC4/cyfitter_cfg.c **** 			{0x0Au, 0x09u},
 330:Generated_Source\PSoC4/cyfitter_cfg.c **** 			{0x0Du, 0x01u},
 331:Generated_Source\PSoC4/cyfitter_cfg.c **** 			{0x0Eu, 0x09u},
 332:Generated_Source\PSoC4/cyfitter_cfg.c **** 			{0x12u, 0x07u},
 333:Generated_Source\PSoC4/cyfitter_cfg.c **** 			{0x13u, 0x01u},
 334:Generated_Source\PSoC4/cyfitter_cfg.c **** 			{0x14u, 0x01u},
 335:Generated_Source\PSoC4/cyfitter_cfg.c **** 			{0x17u, 0x05u},
 336:Generated_Source\PSoC4/cyfitter_cfg.c **** 			{0x18u, 0x01u},
 337:Generated_Source\PSoC4/cyfitter_cfg.c **** 			{0x19u, 0x01u},
ARM GAS  C:\Users\casey\AppData\Local\Temp\ccka1yeh.s 			page 13


 338:Generated_Source\PSoC4/cyfitter_cfg.c **** 			{0x1Eu, 0x05u},
 339:Generated_Source\PSoC4/cyfitter_cfg.c **** 			{0x1Fu, 0x05u},
 340:Generated_Source\PSoC4/cyfitter_cfg.c **** 			{0x21u, 0x05u},
 341:Generated_Source\PSoC4/cyfitter_cfg.c **** 			{0x22u, 0x01u},
 342:Generated_Source\PSoC4/cyfitter_cfg.c **** 			{0x24u, 0x09u},
 343:Generated_Source\PSoC4/cyfitter_cfg.c **** 			{0x25u, 0x01u},
 344:Generated_Source\PSoC4/cyfitter_cfg.c **** 			{0x2Au, 0x07u},
 345:Generated_Source\PSoC4/cyfitter_cfg.c **** 			{0x2Bu, 0x01u},
 346:Generated_Source\PSoC4/cyfitter_cfg.c **** 			{0x2Cu, 0x09u},
 347:Generated_Source\PSoC4/cyfitter_cfg.c **** 			{0x2Fu, 0x01u},
 348:Generated_Source\PSoC4/cyfitter_cfg.c **** 			{0x30u, 0x01u},
 349:Generated_Source\PSoC4/cyfitter_cfg.c **** 			{0x31u, 0x03u},
 350:Generated_Source\PSoC4/cyfitter_cfg.c **** 			{0x32u, 0x04u},
 351:Generated_Source\PSoC4/cyfitter_cfg.c **** 			{0x34u, 0x08u},
 352:Generated_Source\PSoC4/cyfitter_cfg.c **** 			{0x35u, 0x04u},
 353:Generated_Source\PSoC4/cyfitter_cfg.c **** 			{0x36u, 0x02u},
 354:Generated_Source\PSoC4/cyfitter_cfg.c **** 			{0x3Au, 0x88u},
 355:Generated_Source\PSoC4/cyfitter_cfg.c **** 			{0x3Eu, 0x11u},
 356:Generated_Source\PSoC4/cyfitter_cfg.c **** 			{0x3Fu, 0x11u},
 357:Generated_Source\PSoC4/cyfitter_cfg.c **** 			{0x58u, 0x04u},
 358:Generated_Source\PSoC4/cyfitter_cfg.c **** 			{0x59u, 0x04u},
 359:Generated_Source\PSoC4/cyfitter_cfg.c **** 			{0x5Fu, 0x01u},
 360:Generated_Source\PSoC4/cyfitter_cfg.c **** 			{0x82u, 0x03u},
 361:Generated_Source\PSoC4/cyfitter_cfg.c **** 			{0x83u, 0x01u},
 362:Generated_Source\PSoC4/cyfitter_cfg.c **** 			{0x87u, 0x0Du},
 363:Generated_Source\PSoC4/cyfitter_cfg.c **** 			{0x8Bu, 0x05u},
 364:Generated_Source\PSoC4/cyfitter_cfg.c **** 			{0x8Du, 0x08u},
 365:Generated_Source\PSoC4/cyfitter_cfg.c **** 			{0x92u, 0x04u},
 366:Generated_Source\PSoC4/cyfitter_cfg.c **** 			{0x93u, 0x0Du},
 367:Generated_Source\PSoC4/cyfitter_cfg.c **** 			{0x97u, 0x0Du},
 368:Generated_Source\PSoC4/cyfitter_cfg.c **** 			{0x9Cu, 0x01u},
 369:Generated_Source\PSoC4/cyfitter_cfg.c **** 			{0xA2u, 0x01u},
 370:Generated_Source\PSoC4/cyfitter_cfg.c **** 			{0xA3u, 0x0Du},
 371:Generated_Source\PSoC4/cyfitter_cfg.c **** 			{0xABu, 0x05u},
 372:Generated_Source\PSoC4/cyfitter_cfg.c **** 			{0xAFu, 0x02u},
 373:Generated_Source\PSoC4/cyfitter_cfg.c **** 			{0xB1u, 0x04u},
 374:Generated_Source\PSoC4/cyfitter_cfg.c **** 			{0xB2u, 0x04u},
 375:Generated_Source\PSoC4/cyfitter_cfg.c **** 			{0xB3u, 0x03u},
 376:Generated_Source\PSoC4/cyfitter_cfg.c **** 			{0xB4u, 0x01u},
 377:Generated_Source\PSoC4/cyfitter_cfg.c **** 			{0xB5u, 0x08u},
 378:Generated_Source\PSoC4/cyfitter_cfg.c **** 			{0xB6u, 0x02u},
 379:Generated_Source\PSoC4/cyfitter_cfg.c **** 			{0xBBu, 0x2Au},
 380:Generated_Source\PSoC4/cyfitter_cfg.c **** 			{0xBEu, 0x10u},
 381:Generated_Source\PSoC4/cyfitter_cfg.c **** 			{0xD2u, 0x80u},
 382:Generated_Source\PSoC4/cyfitter_cfg.c **** 			{0xD8u, 0x04u},
 383:Generated_Source\PSoC4/cyfitter_cfg.c **** 			{0xD9u, 0x04u},
 384:Generated_Source\PSoC4/cyfitter_cfg.c **** 			{0xDBu, 0x04u},
 385:Generated_Source\PSoC4/cyfitter_cfg.c **** 			{0xDFu, 0x01u},
 386:Generated_Source\PSoC4/cyfitter_cfg.c **** 			{0x00u, 0x04u},
 387:Generated_Source\PSoC4/cyfitter_cfg.c **** 			{0x03u, 0x85u},
 388:Generated_Source\PSoC4/cyfitter_cfg.c **** 			{0x04u, 0x02u},
 389:Generated_Source\PSoC4/cyfitter_cfg.c **** 			{0x08u, 0x04u},
 390:Generated_Source\PSoC4/cyfitter_cfg.c **** 			{0x0Au, 0x02u},
 391:Generated_Source\PSoC4/cyfitter_cfg.c **** 			{0x0Bu, 0x88u},
 392:Generated_Source\PSoC4/cyfitter_cfg.c **** 			{0x0Du, 0x02u},
 393:Generated_Source\PSoC4/cyfitter_cfg.c **** 			{0x0Eu, 0x02u},
 394:Generated_Source\PSoC4/cyfitter_cfg.c **** 			{0x10u, 0x40u},
ARM GAS  C:\Users\casey\AppData\Local\Temp\ccka1yeh.s 			page 14


 395:Generated_Source\PSoC4/cyfitter_cfg.c **** 			{0x12u, 0x0Au},
 396:Generated_Source\PSoC4/cyfitter_cfg.c **** 			{0x13u, 0x08u},
 397:Generated_Source\PSoC4/cyfitter_cfg.c **** 			{0x16u, 0x80u},
 398:Generated_Source\PSoC4/cyfitter_cfg.c **** 			{0x18u, 0x08u},
 399:Generated_Source\PSoC4/cyfitter_cfg.c **** 			{0x1Au, 0x02u},
 400:Generated_Source\PSoC4/cyfitter_cfg.c **** 			{0x1Bu, 0x46u},
 401:Generated_Source\PSoC4/cyfitter_cfg.c **** 			{0x1Cu, 0x08u},
 402:Generated_Source\PSoC4/cyfitter_cfg.c **** 			{0x1Eu, 0x02u},
 403:Generated_Source\PSoC4/cyfitter_cfg.c **** 			{0x1Fu, 0x08u},
 404:Generated_Source\PSoC4/cyfitter_cfg.c **** 			{0x20u, 0x04u},
 405:Generated_Source\PSoC4/cyfitter_cfg.c **** 			{0x23u, 0x40u},
 406:Generated_Source\PSoC4/cyfitter_cfg.c **** 			{0x24u, 0x80u},
 407:Generated_Source\PSoC4/cyfitter_cfg.c **** 			{0x25u, 0x39u},
 408:Generated_Source\PSoC4/cyfitter_cfg.c **** 			{0x26u, 0x02u},
 409:Generated_Source\PSoC4/cyfitter_cfg.c **** 			{0x27u, 0x68u},
 410:Generated_Source\PSoC4/cyfitter_cfg.c **** 			{0x28u, 0x80u},
 411:Generated_Source\PSoC4/cyfitter_cfg.c **** 			{0x29u, 0x84u},
 412:Generated_Source\PSoC4/cyfitter_cfg.c **** 			{0x2Bu, 0x04u},
 413:Generated_Source\PSoC4/cyfitter_cfg.c **** 			{0x2Eu, 0x20u},
 414:Generated_Source\PSoC4/cyfitter_cfg.c **** 			{0x2Fu, 0x42u},
 415:Generated_Source\PSoC4/cyfitter_cfg.c **** 			{0x31u, 0x28u},
 416:Generated_Source\PSoC4/cyfitter_cfg.c **** 			{0x32u, 0x81u},
 417:Generated_Source\PSoC4/cyfitter_cfg.c **** 			{0x36u, 0x08u},
 418:Generated_Source\PSoC4/cyfitter_cfg.c **** 			{0x37u, 0x01u},
 419:Generated_Source\PSoC4/cyfitter_cfg.c **** 			{0x38u, 0xA0u},
 420:Generated_Source\PSoC4/cyfitter_cfg.c **** 			{0x3Au, 0x20u},
 421:Generated_Source\PSoC4/cyfitter_cfg.c **** 			{0x3Bu, 0x0Au},
 422:Generated_Source\PSoC4/cyfitter_cfg.c **** 			{0x3Du, 0x22u},
 423:Generated_Source\PSoC4/cyfitter_cfg.c **** 			{0x3Eu, 0x08u},
 424:Generated_Source\PSoC4/cyfitter_cfg.c **** 			{0x3Fu, 0x40u},
 425:Generated_Source\PSoC4/cyfitter_cfg.c **** 			{0x58u, 0x40u},
 426:Generated_Source\PSoC4/cyfitter_cfg.c **** 			{0x59u, 0x90u},
 427:Generated_Source\PSoC4/cyfitter_cfg.c **** 			{0x5Au, 0x40u},
 428:Generated_Source\PSoC4/cyfitter_cfg.c **** 			{0x5Bu, 0x20u},
 429:Generated_Source\PSoC4/cyfitter_cfg.c **** 			{0x76u, 0x80u},
 430:Generated_Source\PSoC4/cyfitter_cfg.c **** 			{0x83u, 0x08u},
 431:Generated_Source\PSoC4/cyfitter_cfg.c **** 			{0xC0u, 0x1Fu},
 432:Generated_Source\PSoC4/cyfitter_cfg.c **** 			{0xC2u, 0x9Fu},
 433:Generated_Source\PSoC4/cyfitter_cfg.c **** 			{0xC4u, 0x1Fu},
 434:Generated_Source\PSoC4/cyfitter_cfg.c **** 			{0xCAu, 0xBFu},
 435:Generated_Source\PSoC4/cyfitter_cfg.c **** 			{0xCCu, 0xCFu},
 436:Generated_Source\PSoC4/cyfitter_cfg.c **** 			{0xCEu, 0xFFu},
 437:Generated_Source\PSoC4/cyfitter_cfg.c **** 			{0x00u, 0x01u},
 438:Generated_Source\PSoC4/cyfitter_cfg.c **** 			{0x03u, 0x01u},
 439:Generated_Source\PSoC4/cyfitter_cfg.c **** 			{0x04u, 0x20u},
 440:Generated_Source\PSoC4/cyfitter_cfg.c **** 			{0x06u, 0x19u},
 441:Generated_Source\PSoC4/cyfitter_cfg.c **** 			{0x07u, 0x03u},
 442:Generated_Source\PSoC4/cyfitter_cfg.c **** 			{0x08u, 0x20u},
 443:Generated_Source\PSoC4/cyfitter_cfg.c **** 			{0x09u, 0x01u},
 444:Generated_Source\PSoC4/cyfitter_cfg.c **** 			{0x0Au, 0x11u},
 445:Generated_Source\PSoC4/cyfitter_cfg.c **** 			{0x0Bu, 0x02u},
 446:Generated_Source\PSoC4/cyfitter_cfg.c **** 			{0x0Cu, 0x01u},
 447:Generated_Source\PSoC4/cyfitter_cfg.c **** 			{0x0Fu, 0x03u},
 448:Generated_Source\PSoC4/cyfitter_cfg.c **** 			{0x12u, 0x01u},
 449:Generated_Source\PSoC4/cyfitter_cfg.c **** 			{0x13u, 0x01u},
 450:Generated_Source\PSoC4/cyfitter_cfg.c **** 			{0x14u, 0x01u},
 451:Generated_Source\PSoC4/cyfitter_cfg.c **** 			{0x15u, 0x01u},
ARM GAS  C:\Users\casey\AppData\Local\Temp\ccka1yeh.s 			page 15


 452:Generated_Source\PSoC4/cyfitter_cfg.c **** 			{0x17u, 0x02u},
 453:Generated_Source\PSoC4/cyfitter_cfg.c **** 			{0x18u, 0x02u},
 454:Generated_Source\PSoC4/cyfitter_cfg.c **** 			{0x19u, 0x01u},
 455:Generated_Source\PSoC4/cyfitter_cfg.c **** 			{0x1Bu, 0x02u},
 456:Generated_Source\PSoC4/cyfitter_cfg.c **** 			{0x1Cu, 0x04u},
 457:Generated_Source\PSoC4/cyfitter_cfg.c **** 			{0x1Fu, 0x03u},
 458:Generated_Source\PSoC4/cyfitter_cfg.c **** 			{0x22u, 0x21u},
 459:Generated_Source\PSoC4/cyfitter_cfg.c **** 			{0x23u, 0x03u},
 460:Generated_Source\PSoC4/cyfitter_cfg.c **** 			{0x24u, 0x31u},
 461:Generated_Source\PSoC4/cyfitter_cfg.c **** 			{0x27u, 0x01u},
 462:Generated_Source\PSoC4/cyfitter_cfg.c **** 			{0x28u, 0x01u},
 463:Generated_Source\PSoC4/cyfitter_cfg.c **** 			{0x29u, 0x01u},
 464:Generated_Source\PSoC4/cyfitter_cfg.c **** 			{0x2Cu, 0x19u},
 465:Generated_Source\PSoC4/cyfitter_cfg.c **** 			{0x2Du, 0x01u},
 466:Generated_Source\PSoC4/cyfitter_cfg.c **** 			{0x2Eu, 0x20u},
 467:Generated_Source\PSoC4/cyfitter_cfg.c **** 			{0x2Fu, 0x02u},
 468:Generated_Source\PSoC4/cyfitter_cfg.c **** 			{0x30u, 0x10u},
 469:Generated_Source\PSoC4/cyfitter_cfg.c **** 			{0x31u, 0x01u},
 470:Generated_Source\PSoC4/cyfitter_cfg.c **** 			{0x32u, 0x07u},
 471:Generated_Source\PSoC4/cyfitter_cfg.c **** 			{0x33u, 0x02u},
 472:Generated_Source\PSoC4/cyfitter_cfg.c **** 			{0x34u, 0x20u},
 473:Generated_Source\PSoC4/cyfitter_cfg.c **** 			{0x36u, 0x08u},
 474:Generated_Source\PSoC4/cyfitter_cfg.c **** 			{0x3Eu, 0x55u},
 475:Generated_Source\PSoC4/cyfitter_cfg.c **** 			{0x3Fu, 0x05u},
 476:Generated_Source\PSoC4/cyfitter_cfg.c **** 			{0x58u, 0x04u},
 477:Generated_Source\PSoC4/cyfitter_cfg.c **** 			{0x59u, 0x04u},
 478:Generated_Source\PSoC4/cyfitter_cfg.c **** 			{0x5Bu, 0x04u},
 479:Generated_Source\PSoC4/cyfitter_cfg.c **** 			{0x5Fu, 0x01u},
 480:Generated_Source\PSoC4/cyfitter_cfg.c **** 			{0x86u, 0x03u},
 481:Generated_Source\PSoC4/cyfitter_cfg.c **** 			{0x8Fu, 0x02u},
 482:Generated_Source\PSoC4/cyfitter_cfg.c **** 			{0x90u, 0x01u},
 483:Generated_Source\PSoC4/cyfitter_cfg.c **** 			{0x94u, 0x04u},
 484:Generated_Source\PSoC4/cyfitter_cfg.c **** 			{0x99u, 0x01u},
 485:Generated_Source\PSoC4/cyfitter_cfg.c **** 			{0x9Du, 0x02u},
 486:Generated_Source\PSoC4/cyfitter_cfg.c **** 			{0xA2u, 0x0Cu},
 487:Generated_Source\PSoC4/cyfitter_cfg.c **** 			{0xAFu, 0x05u},
 488:Generated_Source\PSoC4/cyfitter_cfg.c **** 			{0xB0u, 0x02u},
 489:Generated_Source\PSoC4/cyfitter_cfg.c **** 			{0xB2u, 0x08u},
 490:Generated_Source\PSoC4/cyfitter_cfg.c **** 			{0xB3u, 0x02u},
 491:Generated_Source\PSoC4/cyfitter_cfg.c **** 			{0xB4u, 0x04u},
 492:Generated_Source\PSoC4/cyfitter_cfg.c **** 			{0xB5u, 0x04u},
 493:Generated_Source\PSoC4/cyfitter_cfg.c **** 			{0xB6u, 0x01u},
 494:Generated_Source\PSoC4/cyfitter_cfg.c **** 			{0xB7u, 0x01u},
 495:Generated_Source\PSoC4/cyfitter_cfg.c **** 			{0xBEu, 0x50u},
 496:Generated_Source\PSoC4/cyfitter_cfg.c **** 			{0xBFu, 0x44u},
 497:Generated_Source\PSoC4/cyfitter_cfg.c **** 			{0xD4u, 0x0Fu},
 498:Generated_Source\PSoC4/cyfitter_cfg.c **** 			{0xD6u, 0x04u},
 499:Generated_Source\PSoC4/cyfitter_cfg.c **** 			{0xD8u, 0x04u},
 500:Generated_Source\PSoC4/cyfitter_cfg.c **** 			{0xD9u, 0x04u},
 501:Generated_Source\PSoC4/cyfitter_cfg.c **** 			{0xDBu, 0x04u},
 502:Generated_Source\PSoC4/cyfitter_cfg.c **** 			{0xDFu, 0x01u},
 503:Generated_Source\PSoC4/cyfitter_cfg.c **** 			{0x01u, 0x08u},
 504:Generated_Source\PSoC4/cyfitter_cfg.c **** 			{0x05u, 0x80u},
 505:Generated_Source\PSoC4/cyfitter_cfg.c **** 			{0x06u, 0x48u},
 506:Generated_Source\PSoC4/cyfitter_cfg.c **** 			{0x07u, 0x24u},
 507:Generated_Source\PSoC4/cyfitter_cfg.c **** 			{0x0Au, 0xA0u},
 508:Generated_Source\PSoC4/cyfitter_cfg.c **** 			{0x0Cu, 0x40u},
ARM GAS  C:\Users\casey\AppData\Local\Temp\ccka1yeh.s 			page 16


 509:Generated_Source\PSoC4/cyfitter_cfg.c **** 			{0x0Eu, 0x80u},
 510:Generated_Source\PSoC4/cyfitter_cfg.c **** 			{0x0Fu, 0x28u},
 511:Generated_Source\PSoC4/cyfitter_cfg.c **** 			{0x10u, 0x80u},
 512:Generated_Source\PSoC4/cyfitter_cfg.c **** 			{0x14u, 0x04u},
 513:Generated_Source\PSoC4/cyfitter_cfg.c **** 			{0x16u, 0x20u},
 514:Generated_Source\PSoC4/cyfitter_cfg.c **** 			{0x17u, 0x49u},
 515:Generated_Source\PSoC4/cyfitter_cfg.c **** 			{0x19u, 0x40u},
 516:Generated_Source\PSoC4/cyfitter_cfg.c **** 			{0x1Au, 0xA8u},
 517:Generated_Source\PSoC4/cyfitter_cfg.c **** 			{0x1Cu, 0x82u},
 518:Generated_Source\PSoC4/cyfitter_cfg.c **** 			{0x1Eu, 0x14u},
 519:Generated_Source\PSoC4/cyfitter_cfg.c **** 			{0x22u, 0x28u},
 520:Generated_Source\PSoC4/cyfitter_cfg.c **** 			{0x23u, 0x12u},
 521:Generated_Source\PSoC4/cyfitter_cfg.c **** 			{0x24u, 0x20u},
 522:Generated_Source\PSoC4/cyfitter_cfg.c **** 			{0x25u, 0x05u},
 523:Generated_Source\PSoC4/cyfitter_cfg.c **** 			{0x28u, 0x40u},
 524:Generated_Source\PSoC4/cyfitter_cfg.c **** 			{0x29u, 0x20u},
 525:Generated_Source\PSoC4/cyfitter_cfg.c **** 			{0x2Au, 0x02u},
 526:Generated_Source\PSoC4/cyfitter_cfg.c **** 			{0x2Bu, 0x4Au},
 527:Generated_Source\PSoC4/cyfitter_cfg.c **** 			{0x2Du, 0x80u},
 528:Generated_Source\PSoC4/cyfitter_cfg.c **** 			{0x2Eu, 0x2Au},
 529:Generated_Source\PSoC4/cyfitter_cfg.c **** 			{0x2Fu, 0x01u},
 530:Generated_Source\PSoC4/cyfitter_cfg.c **** 			{0x32u, 0x60u},
 531:Generated_Source\PSoC4/cyfitter_cfg.c **** 			{0x34u, 0x04u},
 532:Generated_Source\PSoC4/cyfitter_cfg.c **** 			{0x35u, 0x24u},
 533:Generated_Source\PSoC4/cyfitter_cfg.c **** 			{0x36u, 0xC4u},
 534:Generated_Source\PSoC4/cyfitter_cfg.c **** 			{0x37u, 0x01u},
 535:Generated_Source\PSoC4/cyfitter_cfg.c **** 			{0x39u, 0x40u},
 536:Generated_Source\PSoC4/cyfitter_cfg.c **** 			{0x3Cu, 0x22u},
 537:Generated_Source\PSoC4/cyfitter_cfg.c **** 			{0x3Eu, 0x40u},
 538:Generated_Source\PSoC4/cyfitter_cfg.c **** 			{0x3Fu, 0x28u},
 539:Generated_Source\PSoC4/cyfitter_cfg.c **** 			{0x44u, 0x80u},
 540:Generated_Source\PSoC4/cyfitter_cfg.c **** 			{0x46u, 0x40u},
 541:Generated_Source\PSoC4/cyfitter_cfg.c **** 			{0x59u, 0x40u},
 542:Generated_Source\PSoC4/cyfitter_cfg.c **** 			{0x5Au, 0x08u},
 543:Generated_Source\PSoC4/cyfitter_cfg.c **** 			{0x5Bu, 0x12u},
 544:Generated_Source\PSoC4/cyfitter_cfg.c **** 			{0x61u, 0x28u},
 545:Generated_Source\PSoC4/cyfitter_cfg.c **** 			{0x62u, 0x02u},
 546:Generated_Source\PSoC4/cyfitter_cfg.c **** 			{0x69u, 0x40u},
 547:Generated_Source\PSoC4/cyfitter_cfg.c **** 			{0x6Cu, 0x02u},
 548:Generated_Source\PSoC4/cyfitter_cfg.c **** 			{0x80u, 0x81u},
 549:Generated_Source\PSoC4/cyfitter_cfg.c **** 			{0x81u, 0x20u},
 550:Generated_Source\PSoC4/cyfitter_cfg.c **** 			{0x85u, 0x02u},
 551:Generated_Source\PSoC4/cyfitter_cfg.c **** 			{0x8Eu, 0x02u},
 552:Generated_Source\PSoC4/cyfitter_cfg.c **** 			{0x8Fu, 0x12u},
 553:Generated_Source\PSoC4/cyfitter_cfg.c **** 			{0x90u, 0x08u},
 554:Generated_Source\PSoC4/cyfitter_cfg.c **** 			{0x94u, 0x22u},
 555:Generated_Source\PSoC4/cyfitter_cfg.c **** 			{0x96u, 0x40u},
 556:Generated_Source\PSoC4/cyfitter_cfg.c **** 			{0x97u, 0x8Au},
 557:Generated_Source\PSoC4/cyfitter_cfg.c **** 			{0x99u, 0x10u},
 558:Generated_Source\PSoC4/cyfitter_cfg.c **** 			{0x9Bu, 0x68u},
 559:Generated_Source\PSoC4/cyfitter_cfg.c **** 			{0x9Cu, 0x84u},
 560:Generated_Source\PSoC4/cyfitter_cfg.c **** 			{0x9Du, 0x04u},
 561:Generated_Source\PSoC4/cyfitter_cfg.c **** 			{0x9Eu, 0x08u},
 562:Generated_Source\PSoC4/cyfitter_cfg.c **** 			{0x9Fu, 0x05u},
 563:Generated_Source\PSoC4/cyfitter_cfg.c **** 			{0xA0u, 0x04u},
 564:Generated_Source\PSoC4/cyfitter_cfg.c **** 			{0xA3u, 0x44u},
 565:Generated_Source\PSoC4/cyfitter_cfg.c **** 			{0xA5u, 0x02u},
ARM GAS  C:\Users\casey\AppData\Local\Temp\ccka1yeh.s 			page 17


 566:Generated_Source\PSoC4/cyfitter_cfg.c **** 			{0xA6u, 0x88u},
 567:Generated_Source\PSoC4/cyfitter_cfg.c **** 			{0xABu, 0x84u},
 568:Generated_Source\PSoC4/cyfitter_cfg.c **** 			{0xC0u, 0xF4u},
 569:Generated_Source\PSoC4/cyfitter_cfg.c **** 			{0xC2u, 0xFCu},
 570:Generated_Source\PSoC4/cyfitter_cfg.c **** 			{0xC4u, 0xF8u},
 571:Generated_Source\PSoC4/cyfitter_cfg.c **** 			{0xCAu, 0xF8u},
 572:Generated_Source\PSoC4/cyfitter_cfg.c **** 			{0xCCu, 0xFCu},
 573:Generated_Source\PSoC4/cyfitter_cfg.c **** 			{0xCEu, 0xF8u},
 574:Generated_Source\PSoC4/cyfitter_cfg.c **** 			{0xD6u, 0x0Fu},
 575:Generated_Source\PSoC4/cyfitter_cfg.c **** 			{0xD8u, 0x07u},
 576:Generated_Source\PSoC4/cyfitter_cfg.c **** 			{0xE6u, 0x10u},
 577:Generated_Source\PSoC4/cyfitter_cfg.c **** 			{0xEEu, 0x02u},
 578:Generated_Source\PSoC4/cyfitter_cfg.c **** 			{0x01u, 0x82u},
 579:Generated_Source\PSoC4/cyfitter_cfg.c **** 			{0x03u, 0x01u},
 580:Generated_Source\PSoC4/cyfitter_cfg.c **** 			{0x04u, 0x01u},
 581:Generated_Source\PSoC4/cyfitter_cfg.c **** 			{0x07u, 0x80u},
 582:Generated_Source\PSoC4/cyfitter_cfg.c **** 			{0x09u, 0x88u},
 583:Generated_Source\PSoC4/cyfitter_cfg.c **** 			{0x0Bu, 0x01u},
 584:Generated_Source\PSoC4/cyfitter_cfg.c **** 			{0x0Fu, 0x80u},
 585:Generated_Source\PSoC4/cyfitter_cfg.c **** 			{0x11u, 0x40u},
 586:Generated_Source\PSoC4/cyfitter_cfg.c **** 			{0x13u, 0x81u},
 587:Generated_Source\PSoC4/cyfitter_cfg.c **** 			{0x17u, 0x80u},
 588:Generated_Source\PSoC4/cyfitter_cfg.c **** 			{0x1Bu, 0x80u},
 589:Generated_Source\PSoC4/cyfitter_cfg.c **** 			{0x1Du, 0x81u},
 590:Generated_Source\PSoC4/cyfitter_cfg.c **** 			{0x1Fu, 0x7Eu},
 591:Generated_Source\PSoC4/cyfitter_cfg.c **** 			{0x21u, 0x10u},
 592:Generated_Source\PSoC4/cyfitter_cfg.c **** 			{0x23u, 0x81u},
 593:Generated_Source\PSoC4/cyfitter_cfg.c **** 			{0x25u, 0x84u},
 594:Generated_Source\PSoC4/cyfitter_cfg.c **** 			{0x27u, 0x01u},
 595:Generated_Source\PSoC4/cyfitter_cfg.c **** 			{0x29u, 0x20u},
 596:Generated_Source\PSoC4/cyfitter_cfg.c **** 			{0x2Bu, 0x81u},
 597:Generated_Source\PSoC4/cyfitter_cfg.c **** 			{0x2Cu, 0x01u},
 598:Generated_Source\PSoC4/cyfitter_cfg.c **** 			{0x2Du, 0x80u},
 599:Generated_Source\PSoC4/cyfitter_cfg.c **** 			{0x31u, 0x80u},
 600:Generated_Source\PSoC4/cyfitter_cfg.c **** 			{0x35u, 0x7Fu},
 601:Generated_Source\PSoC4/cyfitter_cfg.c **** 			{0x36u, 0x01u},
 602:Generated_Source\PSoC4/cyfitter_cfg.c **** 			{0x3Au, 0xC0u},
 603:Generated_Source\PSoC4/cyfitter_cfg.c **** 			{0x3Fu, 0x11u},
 604:Generated_Source\PSoC4/cyfitter_cfg.c **** 			{0x40u, 0x60u},
 605:Generated_Source\PSoC4/cyfitter_cfg.c **** 			{0x41u, 0x05u},
 606:Generated_Source\PSoC4/cyfitter_cfg.c **** 			{0x49u, 0xFFu},
 607:Generated_Source\PSoC4/cyfitter_cfg.c **** 			{0x4Au, 0xFFu},
 608:Generated_Source\PSoC4/cyfitter_cfg.c **** 			{0x4Bu, 0xFFu},
 609:Generated_Source\PSoC4/cyfitter_cfg.c **** 			{0x4Du, 0xA0u},
 610:Generated_Source\PSoC4/cyfitter_cfg.c **** 			{0x4Fu, 0x01u},
 611:Generated_Source\PSoC4/cyfitter_cfg.c **** 			{0x50u, 0x18u},
 612:Generated_Source\PSoC4/cyfitter_cfg.c **** 			{0x58u, 0x04u},
 613:Generated_Source\PSoC4/cyfitter_cfg.c **** 			{0x59u, 0x04u},
 614:Generated_Source\PSoC4/cyfitter_cfg.c **** 			{0x5Au, 0x04u},
 615:Generated_Source\PSoC4/cyfitter_cfg.c **** 			{0x5Bu, 0x04u},
 616:Generated_Source\PSoC4/cyfitter_cfg.c **** 			{0x5Fu, 0x01u},
 617:Generated_Source\PSoC4/cyfitter_cfg.c **** 			{0x60u, 0x40u},
 618:Generated_Source\PSoC4/cyfitter_cfg.c **** 			{0x62u, 0x80u},
 619:Generated_Source\PSoC4/cyfitter_cfg.c **** 			{0x64u, 0x40u},
 620:Generated_Source\PSoC4/cyfitter_cfg.c **** 			{0x65u, 0x40u},
 621:Generated_Source\PSoC4/cyfitter_cfg.c **** 			{0x66u, 0x80u},
 622:Generated_Source\PSoC4/cyfitter_cfg.c **** 			{0x68u, 0x40u},
ARM GAS  C:\Users\casey\AppData\Local\Temp\ccka1yeh.s 			page 18


 623:Generated_Source\PSoC4/cyfitter_cfg.c **** 			{0x6Au, 0x80u},
 624:Generated_Source\PSoC4/cyfitter_cfg.c **** 			{0x6Cu, 0x40u},
 625:Generated_Source\PSoC4/cyfitter_cfg.c **** 			{0x6Du, 0x20u},
 626:Generated_Source\PSoC4/cyfitter_cfg.c **** 			{0x6Eu, 0x80u},
 627:Generated_Source\PSoC4/cyfitter_cfg.c **** 			{0x81u, 0x38u},
 628:Generated_Source\PSoC4/cyfitter_cfg.c **** 			{0x82u, 0x07u},
 629:Generated_Source\PSoC4/cyfitter_cfg.c **** 			{0x84u, 0x01u},
 630:Generated_Source\PSoC4/cyfitter_cfg.c **** 			{0x86u, 0x04u},
 631:Generated_Source\PSoC4/cyfitter_cfg.c **** 			{0x87u, 0x05u},
 632:Generated_Source\PSoC4/cyfitter_cfg.c **** 			{0x88u, 0x01u},
 633:Generated_Source\PSoC4/cyfitter_cfg.c **** 			{0x89u, 0x40u},
 634:Generated_Source\PSoC4/cyfitter_cfg.c **** 			{0x8Au, 0x06u},
 635:Generated_Source\PSoC4/cyfitter_cfg.c **** 			{0x8Eu, 0x07u},
 636:Generated_Source\PSoC4/cyfitter_cfg.c **** 			{0x90u, 0x01u},
 637:Generated_Source\PSoC4/cyfitter_cfg.c **** 			{0x93u, 0x01u},
 638:Generated_Source\PSoC4/cyfitter_cfg.c **** 			{0x96u, 0x07u},
 639:Generated_Source\PSoC4/cyfitter_cfg.c **** 			{0x9Au, 0x07u},
 640:Generated_Source\PSoC4/cyfitter_cfg.c **** 			{0x9Bu, 0x10u},
 641:Generated_Source\PSoC4/cyfitter_cfg.c **** 			{0x9Eu, 0x01u},
 642:Generated_Source\PSoC4/cyfitter_cfg.c **** 			{0x9Fu, 0x28u},
 643:Generated_Source\PSoC4/cyfitter_cfg.c **** 			{0xA1u, 0x08u},
 644:Generated_Source\PSoC4/cyfitter_cfg.c **** 			{0xA2u, 0x01u},
 645:Generated_Source\PSoC4/cyfitter_cfg.c **** 			{0xA3u, 0x55u},
 646:Generated_Source\PSoC4/cyfitter_cfg.c **** 			{0xA6u, 0x07u},
 647:Generated_Source\PSoC4/cyfitter_cfg.c **** 			{0xA7u, 0x02u},
 648:Generated_Source\PSoC4/cyfitter_cfg.c **** 			{0xA9u, 0x20u},
 649:Generated_Source\PSoC4/cyfitter_cfg.c **** 			{0xAAu, 0x01u},
 650:Generated_Source\PSoC4/cyfitter_cfg.c **** 			{0xABu, 0x55u},
 651:Generated_Source\PSoC4/cyfitter_cfg.c **** 			{0xACu, 0x01u},
 652:Generated_Source\PSoC4/cyfitter_cfg.c **** 			{0xAFu, 0x40u},
 653:Generated_Source\PSoC4/cyfitter_cfg.c **** 			{0xB0u, 0x04u},
 654:Generated_Source\PSoC4/cyfitter_cfg.c **** 			{0xB1u, 0x38u},
 655:Generated_Source\PSoC4/cyfitter_cfg.c **** 			{0xB2u, 0x02u},
 656:Generated_Source\PSoC4/cyfitter_cfg.c **** 			{0xB3u, 0x40u},
 657:Generated_Source\PSoC4/cyfitter_cfg.c **** 			{0xB4u, 0x01u},
 658:Generated_Source\PSoC4/cyfitter_cfg.c **** 			{0xB5u, 0x03u},
 659:Generated_Source\PSoC4/cyfitter_cfg.c **** 			{0xB7u, 0x06u},
 660:Generated_Source\PSoC4/cyfitter_cfg.c **** 			{0xBAu, 0x0Au},
 661:Generated_Source\PSoC4/cyfitter_cfg.c **** 			{0xBBu, 0xA8u},
 662:Generated_Source\PSoC4/cyfitter_cfg.c **** 			{0xBEu, 0x10u},
 663:Generated_Source\PSoC4/cyfitter_cfg.c **** 			{0xC0u, 0x60u},
 664:Generated_Source\PSoC4/cyfitter_cfg.c **** 			{0xC1u, 0x05u},
 665:Generated_Source\PSoC4/cyfitter_cfg.c **** 			{0xC9u, 0xFFu},
 666:Generated_Source\PSoC4/cyfitter_cfg.c **** 			{0xCAu, 0xFFu},
 667:Generated_Source\PSoC4/cyfitter_cfg.c **** 			{0xCBu, 0xFFu},
 668:Generated_Source\PSoC4/cyfitter_cfg.c **** 			{0xCDu, 0xAFu},
 669:Generated_Source\PSoC4/cyfitter_cfg.c **** 			{0xCEu, 0x07u},
 670:Generated_Source\PSoC4/cyfitter_cfg.c **** 			{0xCFu, 0x01u},
 671:Generated_Source\PSoC4/cyfitter_cfg.c **** 			{0xD0u, 0x18u},
 672:Generated_Source\PSoC4/cyfitter_cfg.c **** 			{0xD8u, 0x04u},
 673:Generated_Source\PSoC4/cyfitter_cfg.c **** 			{0xD9u, 0x04u},
 674:Generated_Source\PSoC4/cyfitter_cfg.c **** 			{0xDAu, 0x04u},
 675:Generated_Source\PSoC4/cyfitter_cfg.c **** 			{0xDFu, 0x01u},
 676:Generated_Source\PSoC4/cyfitter_cfg.c **** 			{0xE0u, 0x40u},
 677:Generated_Source\PSoC4/cyfitter_cfg.c **** 			{0xE2u, 0x80u},
 678:Generated_Source\PSoC4/cyfitter_cfg.c **** 			{0xE4u, 0x40u},
 679:Generated_Source\PSoC4/cyfitter_cfg.c **** 			{0xE5u, 0x40u},
ARM GAS  C:\Users\casey\AppData\Local\Temp\ccka1yeh.s 			page 19


 680:Generated_Source\PSoC4/cyfitter_cfg.c **** 			{0xE6u, 0x80u},
 681:Generated_Source\PSoC4/cyfitter_cfg.c **** 			{0xE8u, 0x40u},
 682:Generated_Source\PSoC4/cyfitter_cfg.c **** 			{0xEAu, 0x80u},
 683:Generated_Source\PSoC4/cyfitter_cfg.c **** 			{0xECu, 0x40u},
 684:Generated_Source\PSoC4/cyfitter_cfg.c **** 			{0xEDu, 0x20u},
 685:Generated_Source\PSoC4/cyfitter_cfg.c **** 			{0xEEu, 0x80u},
 686:Generated_Source\PSoC4/cyfitter_cfg.c **** 			{0x00u, 0x04u},
 687:Generated_Source\PSoC4/cyfitter_cfg.c **** 			{0x04u, 0x20u},
 688:Generated_Source\PSoC4/cyfitter_cfg.c **** 			{0x05u, 0x05u},
 689:Generated_Source\PSoC4/cyfitter_cfg.c **** 			{0x06u, 0x01u},
 690:Generated_Source\PSoC4/cyfitter_cfg.c **** 			{0x0Du, 0x02u},
 691:Generated_Source\PSoC4/cyfitter_cfg.c **** 			{0x0Fu, 0x19u},
 692:Generated_Source\PSoC4/cyfitter_cfg.c **** 			{0x12u, 0xC2u},
 693:Generated_Source\PSoC4/cyfitter_cfg.c **** 			{0x13u, 0x01u},
 694:Generated_Source\PSoC4/cyfitter_cfg.c **** 			{0x15u, 0x24u},
 695:Generated_Source\PSoC4/cyfitter_cfg.c **** 			{0x17u, 0x41u},
 696:Generated_Source\PSoC4/cyfitter_cfg.c **** 			{0x18u, 0x02u},
 697:Generated_Source\PSoC4/cyfitter_cfg.c **** 			{0x19u, 0x80u},
 698:Generated_Source\PSoC4/cyfitter_cfg.c **** 			{0x1Au, 0x02u},
 699:Generated_Source\PSoC4/cyfitter_cfg.c **** 			{0x1Cu, 0x20u},
 700:Generated_Source\PSoC4/cyfitter_cfg.c **** 			{0x1Du, 0x06u},
 701:Generated_Source\PSoC4/cyfitter_cfg.c **** 			{0x1Fu, 0x25u},
 702:Generated_Source\PSoC4/cyfitter_cfg.c **** 			{0x22u, 0x22u},
 703:Generated_Source\PSoC4/cyfitter_cfg.c **** 			{0x24u, 0x20u},
 704:Generated_Source\PSoC4/cyfitter_cfg.c **** 			{0x26u, 0x04u},
 705:Generated_Source\PSoC4/cyfitter_cfg.c **** 			{0x27u, 0x45u},
 706:Generated_Source\PSoC4/cyfitter_cfg.c **** 			{0x28u, 0x80u},
 707:Generated_Source\PSoC4/cyfitter_cfg.c **** 			{0x29u, 0x84u},
 708:Generated_Source\PSoC4/cyfitter_cfg.c **** 			{0x2Bu, 0x04u},
 709:Generated_Source\PSoC4/cyfitter_cfg.c **** 			{0x2Cu, 0x08u},
 710:Generated_Source\PSoC4/cyfitter_cfg.c **** 			{0x2Eu, 0x40u},
 711:Generated_Source\PSoC4/cyfitter_cfg.c **** 			{0x2Fu, 0x60u},
 712:Generated_Source\PSoC4/cyfitter_cfg.c **** 			{0x30u, 0x08u},
 713:Generated_Source\PSoC4/cyfitter_cfg.c **** 			{0x31u, 0x11u},
 714:Generated_Source\PSoC4/cyfitter_cfg.c **** 			{0x32u, 0x08u},
 715:Generated_Source\PSoC4/cyfitter_cfg.c **** 			{0x33u, 0x40u},
 716:Generated_Source\PSoC4/cyfitter_cfg.c **** 			{0x36u, 0x20u},
 717:Generated_Source\PSoC4/cyfitter_cfg.c **** 			{0x37u, 0x41u},
 718:Generated_Source\PSoC4/cyfitter_cfg.c **** 			{0x38u, 0x28u},
 719:Generated_Source\PSoC4/cyfitter_cfg.c **** 			{0x3Au, 0x40u},
 720:Generated_Source\PSoC4/cyfitter_cfg.c **** 			{0x3Bu, 0x02u},
 721:Generated_Source\PSoC4/cyfitter_cfg.c **** 			{0x3Du, 0x0Au},
 722:Generated_Source\PSoC4/cyfitter_cfg.c **** 			{0x3Eu, 0x10u},
 723:Generated_Source\PSoC4/cyfitter_cfg.c **** 			{0x48u, 0x06u},
 724:Generated_Source\PSoC4/cyfitter_cfg.c **** 			{0x49u, 0x20u},
 725:Generated_Source\PSoC4/cyfitter_cfg.c **** 			{0x4Cu, 0x02u},
 726:Generated_Source\PSoC4/cyfitter_cfg.c **** 			{0x4Du, 0x20u},
 727:Generated_Source\PSoC4/cyfitter_cfg.c **** 			{0x58u, 0x55u},
 728:Generated_Source\PSoC4/cyfitter_cfg.c **** 			{0x5Cu, 0x80u},
 729:Generated_Source\PSoC4/cyfitter_cfg.c **** 			{0x5Eu, 0x40u},
 730:Generated_Source\PSoC4/cyfitter_cfg.c **** 			{0x5Fu, 0x40u},
 731:Generated_Source\PSoC4/cyfitter_cfg.c **** 			{0x61u, 0x01u},
 732:Generated_Source\PSoC4/cyfitter_cfg.c **** 			{0x63u, 0x80u},
 733:Generated_Source\PSoC4/cyfitter_cfg.c **** 			{0x66u, 0x01u},
 734:Generated_Source\PSoC4/cyfitter_cfg.c **** 			{0x67u, 0x80u},
 735:Generated_Source\PSoC4/cyfitter_cfg.c **** 			{0x83u, 0x48u},
 736:Generated_Source\PSoC4/cyfitter_cfg.c **** 			{0x85u, 0x04u},
ARM GAS  C:\Users\casey\AppData\Local\Temp\ccka1yeh.s 			page 20


 737:Generated_Source\PSoC4/cyfitter_cfg.c **** 			{0x87u, 0x40u},
 738:Generated_Source\PSoC4/cyfitter_cfg.c **** 			{0x90u, 0x08u},
 739:Generated_Source\PSoC4/cyfitter_cfg.c **** 			{0x91u, 0x20u},
 740:Generated_Source\PSoC4/cyfitter_cfg.c **** 			{0x92u, 0x14u},
 741:Generated_Source\PSoC4/cyfitter_cfg.c **** 			{0x93u, 0x10u},
 742:Generated_Source\PSoC4/cyfitter_cfg.c **** 			{0x94u, 0x02u},
 743:Generated_Source\PSoC4/cyfitter_cfg.c **** 			{0x96u, 0x40u},
 744:Generated_Source\PSoC4/cyfitter_cfg.c **** 			{0x97u, 0x8Au},
 745:Generated_Source\PSoC4/cyfitter_cfg.c **** 			{0x99u, 0x10u},
 746:Generated_Source\PSoC4/cyfitter_cfg.c **** 			{0x9Du, 0x08u},
 747:Generated_Source\PSoC4/cyfitter_cfg.c **** 			{0x9Fu, 0x05u},
 748:Generated_Source\PSoC4/cyfitter_cfg.c **** 			{0xA0u, 0x06u},
 749:Generated_Source\PSoC4/cyfitter_cfg.c **** 			{0xA1u, 0x05u},
 750:Generated_Source\PSoC4/cyfitter_cfg.c **** 			{0xA2u, 0x08u},
 751:Generated_Source\PSoC4/cyfitter_cfg.c **** 			{0xA3u, 0x44u},
 752:Generated_Source\PSoC4/cyfitter_cfg.c **** 			{0xA4u, 0x90u},
 753:Generated_Source\PSoC4/cyfitter_cfg.c **** 			{0xA5u, 0x28u},
 754:Generated_Source\PSoC4/cyfitter_cfg.c **** 			{0xA6u, 0x84u},
 755:Generated_Source\PSoC4/cyfitter_cfg.c **** 			{0xA7u, 0x0Au},
 756:Generated_Source\PSoC4/cyfitter_cfg.c **** 			{0xB0u, 0x42u},
 757:Generated_Source\PSoC4/cyfitter_cfg.c **** 			{0xB1u, 0x10u},
 758:Generated_Source\PSoC4/cyfitter_cfg.c **** 			{0xC0u, 0xF4u},
 759:Generated_Source\PSoC4/cyfitter_cfg.c **** 			{0xC2u, 0xF0u},
 760:Generated_Source\PSoC4/cyfitter_cfg.c **** 			{0xC4u, 0xF1u},
 761:Generated_Source\PSoC4/cyfitter_cfg.c **** 			{0xCAu, 0xFFu},
 762:Generated_Source\PSoC4/cyfitter_cfg.c **** 			{0xCCu, 0xBFu},
 763:Generated_Source\PSoC4/cyfitter_cfg.c **** 			{0xCEu, 0xEFu},
 764:Generated_Source\PSoC4/cyfitter_cfg.c **** 			{0xD2u, 0x3Cu},
 765:Generated_Source\PSoC4/cyfitter_cfg.c **** 			{0xD6u, 0x0Fu},
 766:Generated_Source\PSoC4/cyfitter_cfg.c **** 			{0xEEu, 0x80u},
 767:Generated_Source\PSoC4/cyfitter_cfg.c **** 			{0x00u, 0x01u},
 768:Generated_Source\PSoC4/cyfitter_cfg.c **** 			{0x04u, 0x01u},
 769:Generated_Source\PSoC4/cyfitter_cfg.c **** 			{0x07u, 0x08u},
 770:Generated_Source\PSoC4/cyfitter_cfg.c **** 			{0x08u, 0x01u},
 771:Generated_Source\PSoC4/cyfitter_cfg.c **** 			{0x0Bu, 0x03u},
 772:Generated_Source\PSoC4/cyfitter_cfg.c **** 			{0x0Eu, 0x01u},
 773:Generated_Source\PSoC4/cyfitter_cfg.c **** 			{0x12u, 0x01u},
 774:Generated_Source\PSoC4/cyfitter_cfg.c **** 			{0x13u, 0x03u},
 775:Generated_Source\PSoC4/cyfitter_cfg.c **** 			{0x14u, 0x02u},
 776:Generated_Source\PSoC4/cyfitter_cfg.c **** 			{0x16u, 0x01u},
 777:Generated_Source\PSoC4/cyfitter_cfg.c **** 			{0x1Au, 0x01u},
 778:Generated_Source\PSoC4/cyfitter_cfg.c **** 			{0x1Cu, 0x02u},
 779:Generated_Source\PSoC4/cyfitter_cfg.c **** 			{0x1Du, 0x01u},
 780:Generated_Source\PSoC4/cyfitter_cfg.c **** 			{0x1Eu, 0x01u},
 781:Generated_Source\PSoC4/cyfitter_cfg.c **** 			{0x1Fu, 0x02u},
 782:Generated_Source\PSoC4/cyfitter_cfg.c **** 			{0x20u, 0x01u},
 783:Generated_Source\PSoC4/cyfitter_cfg.c **** 			{0x26u, 0x01u},
 784:Generated_Source\PSoC4/cyfitter_cfg.c **** 			{0x27u, 0x04u},
 785:Generated_Source\PSoC4/cyfitter_cfg.c **** 			{0x29u, 0x02u},
 786:Generated_Source\PSoC4/cyfitter_cfg.c **** 			{0x2Au, 0x01u},
 787:Generated_Source\PSoC4/cyfitter_cfg.c **** 			{0x2Bu, 0x01u},
 788:Generated_Source\PSoC4/cyfitter_cfg.c **** 			{0x2Eu, 0x01u},
 789:Generated_Source\PSoC4/cyfitter_cfg.c **** 			{0x34u, 0x01u},
 790:Generated_Source\PSoC4/cyfitter_cfg.c **** 			{0x35u, 0x08u},
 791:Generated_Source\PSoC4/cyfitter_cfg.c **** 			{0x36u, 0x02u},
 792:Generated_Source\PSoC4/cyfitter_cfg.c **** 			{0x37u, 0x07u},
 793:Generated_Source\PSoC4/cyfitter_cfg.c **** 			{0x38u, 0x80u},
ARM GAS  C:\Users\casey\AppData\Local\Temp\ccka1yeh.s 			page 21


 794:Generated_Source\PSoC4/cyfitter_cfg.c **** 			{0x3Bu, 0x80u},
 795:Generated_Source\PSoC4/cyfitter_cfg.c **** 			{0x3Eu, 0x10u},
 796:Generated_Source\PSoC4/cyfitter_cfg.c **** 			{0x40u, 0x60u},
 797:Generated_Source\PSoC4/cyfitter_cfg.c **** 			{0x41u, 0x05u},
 798:Generated_Source\PSoC4/cyfitter_cfg.c **** 			{0x49u, 0xFFu},
 799:Generated_Source\PSoC4/cyfitter_cfg.c **** 			{0x4Au, 0xFFu},
 800:Generated_Source\PSoC4/cyfitter_cfg.c **** 			{0x4Bu, 0xFFu},
 801:Generated_Source\PSoC4/cyfitter_cfg.c **** 			{0x4Du, 0xAFu},
 802:Generated_Source\PSoC4/cyfitter_cfg.c **** 			{0x4Eu, 0x07u},
 803:Generated_Source\PSoC4/cyfitter_cfg.c **** 			{0x4Fu, 0x01u},
 804:Generated_Source\PSoC4/cyfitter_cfg.c **** 			{0x50u, 0x18u},
 805:Generated_Source\PSoC4/cyfitter_cfg.c **** 			{0x58u, 0x04u},
 806:Generated_Source\PSoC4/cyfitter_cfg.c **** 			{0x59u, 0x04u},
 807:Generated_Source\PSoC4/cyfitter_cfg.c **** 			{0x5Au, 0x04u},
 808:Generated_Source\PSoC4/cyfitter_cfg.c **** 			{0x5Fu, 0x01u},
 809:Generated_Source\PSoC4/cyfitter_cfg.c **** 			{0x60u, 0x40u},
 810:Generated_Source\PSoC4/cyfitter_cfg.c **** 			{0x62u, 0x80u},
 811:Generated_Source\PSoC4/cyfitter_cfg.c **** 			{0x64u, 0x40u},
 812:Generated_Source\PSoC4/cyfitter_cfg.c **** 			{0x65u, 0x40u},
 813:Generated_Source\PSoC4/cyfitter_cfg.c **** 			{0x66u, 0x80u},
 814:Generated_Source\PSoC4/cyfitter_cfg.c **** 			{0x68u, 0x40u},
 815:Generated_Source\PSoC4/cyfitter_cfg.c **** 			{0x6Au, 0x80u},
 816:Generated_Source\PSoC4/cyfitter_cfg.c **** 			{0x6Cu, 0x40u},
 817:Generated_Source\PSoC4/cyfitter_cfg.c **** 			{0x6Du, 0x20u},
 818:Generated_Source\PSoC4/cyfitter_cfg.c **** 			{0x6Eu, 0x80u},
 819:Generated_Source\PSoC4/cyfitter_cfg.c **** 			{0x02u, 0x12u},
 820:Generated_Source\PSoC4/cyfitter_cfg.c **** 			{0x03u, 0x88u},
 821:Generated_Source\PSoC4/cyfitter_cfg.c **** 			{0x04u, 0x28u},
 822:Generated_Source\PSoC4/cyfitter_cfg.c **** 			{0x07u, 0x41u},
 823:Generated_Source\PSoC4/cyfitter_cfg.c **** 			{0x0Au, 0x06u},
 824:Generated_Source\PSoC4/cyfitter_cfg.c **** 			{0x0Bu, 0xA0u},
 825:Generated_Source\PSoC4/cyfitter_cfg.c **** 			{0x0Eu, 0x42u},
 826:Generated_Source\PSoC4/cyfitter_cfg.c **** 			{0x0Fu, 0x18u},
 827:Generated_Source\PSoC4/cyfitter_cfg.c **** 			{0x11u, 0x04u},
 828:Generated_Source\PSoC4/cyfitter_cfg.c **** 			{0x12u, 0x89u},
 829:Generated_Source\PSoC4/cyfitter_cfg.c **** 			{0x15u, 0x29u},
 830:Generated_Source\PSoC4/cyfitter_cfg.c **** 			{0x16u, 0x22u},
 831:Generated_Source\PSoC4/cyfitter_cfg.c **** 			{0x18u, 0x04u},
 832:Generated_Source\PSoC4/cyfitter_cfg.c **** 			{0x19u, 0x01u},
 833:Generated_Source\PSoC4/cyfitter_cfg.c **** 			{0x1Au, 0x40u},
 834:Generated_Source\PSoC4/cyfitter_cfg.c **** 			{0x1Eu, 0x02u},
 835:Generated_Source\PSoC4/cyfitter_cfg.c **** 			{0x1Fu, 0x60u},
 836:Generated_Source\PSoC4/cyfitter_cfg.c **** 			{0x21u, 0x04u},
 837:Generated_Source\PSoC4/cyfitter_cfg.c **** 			{0x23u, 0x40u},
 838:Generated_Source\PSoC4/cyfitter_cfg.c **** 			{0x25u, 0x10u},
 839:Generated_Source\PSoC4/cyfitter_cfg.c **** 			{0x26u, 0x80u},
 840:Generated_Source\PSoC4/cyfitter_cfg.c **** 			{0x29u, 0x80u},
 841:Generated_Source\PSoC4/cyfitter_cfg.c **** 			{0x2Au, 0x12u},
 842:Generated_Source\PSoC4/cyfitter_cfg.c **** 			{0x2Bu, 0xC4u},
 843:Generated_Source\PSoC4/cyfitter_cfg.c **** 			{0x2Eu, 0x20u},
 844:Generated_Source\PSoC4/cyfitter_cfg.c **** 			{0x2Fu, 0x20u},
 845:Generated_Source\PSoC4/cyfitter_cfg.c **** 			{0x31u, 0x01u},
 846:Generated_Source\PSoC4/cyfitter_cfg.c **** 			{0x32u, 0x02u},
 847:Generated_Source\PSoC4/cyfitter_cfg.c **** 			{0x33u, 0x08u},
 848:Generated_Source\PSoC4/cyfitter_cfg.c **** 			{0x35u, 0x80u},
 849:Generated_Source\PSoC4/cyfitter_cfg.c **** 			{0x36u, 0x81u},
 850:Generated_Source\PSoC4/cyfitter_cfg.c **** 			{0x38u, 0x28u},
ARM GAS  C:\Users\casey\AppData\Local\Temp\ccka1yeh.s 			page 22


 851:Generated_Source\PSoC4/cyfitter_cfg.c **** 			{0x39u, 0x05u},
 852:Generated_Source\PSoC4/cyfitter_cfg.c **** 			{0x3Au, 0x01u},
 853:Generated_Source\PSoC4/cyfitter_cfg.c **** 			{0x3Bu, 0x2Au},
 854:Generated_Source\PSoC4/cyfitter_cfg.c **** 			{0x3Fu, 0x14u},
 855:Generated_Source\PSoC4/cyfitter_cfg.c **** 			{0x48u, 0x02u},
 856:Generated_Source\PSoC4/cyfitter_cfg.c **** 			{0x49u, 0x28u},
 857:Generated_Source\PSoC4/cyfitter_cfg.c **** 			{0x4Cu, 0x02u},
 858:Generated_Source\PSoC4/cyfitter_cfg.c **** 			{0x4Du, 0x20u},
 859:Generated_Source\PSoC4/cyfitter_cfg.c **** 			{0x50u, 0x80u},
 860:Generated_Source\PSoC4/cyfitter_cfg.c **** 			{0x51u, 0x28u},
 861:Generated_Source\PSoC4/cyfitter_cfg.c **** 			{0x53u, 0x02u},
 862:Generated_Source\PSoC4/cyfitter_cfg.c **** 			{0x81u, 0x10u},
 863:Generated_Source\PSoC4/cyfitter_cfg.c **** 			{0x8Bu, 0x44u},
 864:Generated_Source\PSoC4/cyfitter_cfg.c **** 			{0x90u, 0x20u},
 865:Generated_Source\PSoC4/cyfitter_cfg.c **** 			{0x91u, 0x20u},
 866:Generated_Source\PSoC4/cyfitter_cfg.c **** 			{0x92u, 0x06u},
 867:Generated_Source\PSoC4/cyfitter_cfg.c **** 			{0x93u, 0x1Au},
 868:Generated_Source\PSoC4/cyfitter_cfg.c **** 			{0x94u, 0x04u},
 869:Generated_Source\PSoC4/cyfitter_cfg.c **** 			{0x96u, 0x40u},
 870:Generated_Source\PSoC4/cyfitter_cfg.c **** 			{0x97u, 0x80u},
 871:Generated_Source\PSoC4/cyfitter_cfg.c **** 			{0x99u, 0x20u},
 872:Generated_Source\PSoC4/cyfitter_cfg.c **** 			{0x9Bu, 0x41u},
 873:Generated_Source\PSoC4/cyfitter_cfg.c **** 			{0x9Du, 0x08u},
 874:Generated_Source\PSoC4/cyfitter_cfg.c **** 			{0xA0u, 0x02u},
 875:Generated_Source\PSoC4/cyfitter_cfg.c **** 			{0xA2u, 0x08u},
 876:Generated_Source\PSoC4/cyfitter_cfg.c **** 			{0xA3u, 0x4Cu},
 877:Generated_Source\PSoC4/cyfitter_cfg.c **** 			{0xA4u, 0x80u},
 878:Generated_Source\PSoC4/cyfitter_cfg.c **** 			{0xA5u, 0x28u},
 879:Generated_Source\PSoC4/cyfitter_cfg.c **** 			{0xA6u, 0x80u},
 880:Generated_Source\PSoC4/cyfitter_cfg.c **** 			{0xA7u, 0x02u},
 881:Generated_Source\PSoC4/cyfitter_cfg.c **** 			{0xB0u, 0x55u},
 882:Generated_Source\PSoC4/cyfitter_cfg.c **** 			{0xC0u, 0xFFu},
 883:Generated_Source\PSoC4/cyfitter_cfg.c **** 			{0xC2u, 0xFFu},
 884:Generated_Source\PSoC4/cyfitter_cfg.c **** 			{0xC4u, 0xFFu},
 885:Generated_Source\PSoC4/cyfitter_cfg.c **** 			{0xCAu, 0x6Du},
 886:Generated_Source\PSoC4/cyfitter_cfg.c **** 			{0xCCu, 0x93u},
 887:Generated_Source\PSoC4/cyfitter_cfg.c **** 			{0xCEu, 0x67u},
 888:Generated_Source\PSoC4/cyfitter_cfg.c **** 			{0xD2u, 0x3Cu},
 889:Generated_Source\PSoC4/cyfitter_cfg.c **** 			{0xE4u, 0x20u},
 890:Generated_Source\PSoC4/cyfitter_cfg.c **** 			{0x53u, 0x01u},
 891:Generated_Source\PSoC4/cyfitter_cfg.c **** 			{0x6Bu, 0x20u},
 892:Generated_Source\PSoC4/cyfitter_cfg.c **** 			{0x6Fu, 0x08u},
 893:Generated_Source\PSoC4/cyfitter_cfg.c **** 			{0x73u, 0x02u},
 894:Generated_Source\PSoC4/cyfitter_cfg.c **** 			{0x74u, 0x20u},
 895:Generated_Source\PSoC4/cyfitter_cfg.c **** 			{0x83u, 0x02u},
 896:Generated_Source\PSoC4/cyfitter_cfg.c **** 			{0xD4u, 0x80u},
 897:Generated_Source\PSoC4/cyfitter_cfg.c **** 			{0xDAu, 0xC0u},
 898:Generated_Source\PSoC4/cyfitter_cfg.c **** 			{0xDCu, 0x60u},
 899:Generated_Source\PSoC4/cyfitter_cfg.c **** 			{0xE6u, 0x80u},
 900:Generated_Source\PSoC4/cyfitter_cfg.c **** 			{0x5Cu, 0x08u},
 901:Generated_Source\PSoC4/cyfitter_cfg.c **** 			{0x61u, 0x20u},
 902:Generated_Source\PSoC4/cyfitter_cfg.c **** 			{0x80u, 0x08u},
 903:Generated_Source\PSoC4/cyfitter_cfg.c **** 			{0x83u, 0x01u},
 904:Generated_Source\PSoC4/cyfitter_cfg.c **** 			{0x87u, 0x80u},
 905:Generated_Source\PSoC4/cyfitter_cfg.c **** 			{0x8Fu, 0x20u},
 906:Generated_Source\PSoC4/cyfitter_cfg.c **** 			{0x97u, 0x02u},
 907:Generated_Source\PSoC4/cyfitter_cfg.c **** 			{0x9Fu, 0x20u},
ARM GAS  C:\Users\casey\AppData\Local\Temp\ccka1yeh.s 			page 23


 908:Generated_Source\PSoC4/cyfitter_cfg.c **** 			{0xA4u, 0x20u},
 909:Generated_Source\PSoC4/cyfitter_cfg.c **** 			{0xAFu, 0x08u},
 910:Generated_Source\PSoC4/cyfitter_cfg.c **** 			{0xD6u, 0x80u},
 911:Generated_Source\PSoC4/cyfitter_cfg.c **** 			{0xD8u, 0x40u},
 912:Generated_Source\PSoC4/cyfitter_cfg.c **** 			{0xE0u, 0x40u},
 913:Generated_Source\PSoC4/cyfitter_cfg.c **** 			{0xE6u, 0x20u},
 914:Generated_Source\PSoC4/cyfitter_cfg.c **** 			{0xEEu, 0x40u},
 915:Generated_Source\PSoC4/cyfitter_cfg.c **** 			{0x00u, 0x80u},
 916:Generated_Source\PSoC4/cyfitter_cfg.c **** 			{0x07u, 0x80u},
 917:Generated_Source\PSoC4/cyfitter_cfg.c **** 			{0x9Fu, 0x80u},
 918:Generated_Source\PSoC4/cyfitter_cfg.c **** 			{0xA4u, 0x20u},
 919:Generated_Source\PSoC4/cyfitter_cfg.c **** 			{0xB1u, 0x20u},
 920:Generated_Source\PSoC4/cyfitter_cfg.c **** 			{0xC0u, 0x60u},
 921:Generated_Source\PSoC4/cyfitter_cfg.c **** 			{0x80u, 0x20u},
 922:Generated_Source\PSoC4/cyfitter_cfg.c **** 			{0x88u, 0x40u},
 923:Generated_Source\PSoC4/cyfitter_cfg.c **** 			{0xA0u, 0x40u},
 924:Generated_Source\PSoC4/cyfitter_cfg.c **** 			{0xA4u, 0x20u},
 925:Generated_Source\PSoC4/cyfitter_cfg.c **** 			{0xE2u, 0x80u},
 926:Generated_Source\PSoC4/cyfitter_cfg.c **** 			{0x9Cu, 0x10u},
 927:Generated_Source\PSoC4/cyfitter_cfg.c **** 			{0xACu, 0x10u},
 928:Generated_Source\PSoC4/cyfitter_cfg.c **** 			{0x05u, 0x28u},
 929:Generated_Source\PSoC4/cyfitter_cfg.c **** 			{0x08u, 0x10u},
 930:Generated_Source\PSoC4/cyfitter_cfg.c **** 			{0x0Cu, 0x02u},
 931:Generated_Source\PSoC4/cyfitter_cfg.c **** 			{0x0Du, 0x10u},
 932:Generated_Source\PSoC4/cyfitter_cfg.c **** 			{0x5Fu, 0x02u},
 933:Generated_Source\PSoC4/cyfitter_cfg.c **** 			{0x9Cu, 0x10u},
 934:Generated_Source\PSoC4/cyfitter_cfg.c **** 			{0xC0u, 0x05u},
 935:Generated_Source\PSoC4/cyfitter_cfg.c **** 			{0xC2u, 0x07u},
 936:Generated_Source\PSoC4/cyfitter_cfg.c **** 			{0xD6u, 0x01u},
 937:Generated_Source\PSoC4/cyfitter_cfg.c **** 			{0x8Bu, 0x02u},
 938:Generated_Source\PSoC4/cyfitter_cfg.c **** 			{0x9Fu, 0x02u},
 939:Generated_Source\PSoC4/cyfitter_cfg.c **** 			{0xB0u, 0x02u},
 940:Generated_Source\PSoC4/cyfitter_cfg.c **** 			{0xB1u, 0x38u},
 941:Generated_Source\PSoC4/cyfitter_cfg.c **** 			{0xE0u, 0x04u},
 942:Generated_Source\PSoC4/cyfitter_cfg.c **** 			{0xEAu, 0x05u},
 943:Generated_Source\PSoC4/cyfitter_cfg.c **** 			{0xEEu, 0x05u},
 944:Generated_Source\PSoC4/cyfitter_cfg.c **** 			{0x01u, 0x01u},
 945:Generated_Source\PSoC4/cyfitter_cfg.c **** 			{0x10u, 0x01u},
 946:Generated_Source\PSoC4/cyfitter_cfg.c **** 			{0x12u, 0x01u},
 947:Generated_Source\PSoC4/cyfitter_cfg.c **** 		};
 948:Generated_Source\PSoC4/cyfitter_cfg.c **** 
 949:Generated_Source\PSoC4/cyfitter_cfg.c **** 
 950:Generated_Source\PSoC4/cyfitter_cfg.c **** 
 951:Generated_Source\PSoC4/cyfitter_cfg.c **** 		CYPACKED typedef struct {
 952:Generated_Source\PSoC4/cyfitter_cfg.c **** 			void CYFAR *address;
 953:Generated_Source\PSoC4/cyfitter_cfg.c **** 			uint16 size;
 954:Generated_Source\PSoC4/cyfitter_cfg.c **** 		} CYPACKED_ATTR cfg_memset_t;
 955:Generated_Source\PSoC4/cyfitter_cfg.c **** 
 956:Generated_Source\PSoC4/cyfitter_cfg.c **** 
 957:Generated_Source\PSoC4/cyfitter_cfg.c **** 		CYPACKED typedef struct {
 958:Generated_Source\PSoC4/cyfitter_cfg.c **** 			void CYFAR *dest;
 959:Generated_Source\PSoC4/cyfitter_cfg.c **** 			const void CYCODE *src;
 960:Generated_Source\PSoC4/cyfitter_cfg.c **** 			uint16 size;
 961:Generated_Source\PSoC4/cyfitter_cfg.c **** 		} CYPACKED_ATTR cfg_memcpy_t;
 962:Generated_Source\PSoC4/cyfitter_cfg.c **** 
 963:Generated_Source\PSoC4/cyfitter_cfg.c **** 		static const cfg_memset_t CYCODE cfg_memset_list[] = {
 964:Generated_Source\PSoC4/cyfitter_cfg.c **** 			/* address, size */
ARM GAS  C:\Users\casey\AppData\Local\Temp\ccka1yeh.s 			page 24


 965:Generated_Source\PSoC4/cyfitter_cfg.c **** 			{(void CYFAR *)(CYDEV_UDB_P0_U0_BASE), 1664u},
 966:Generated_Source\PSoC4/cyfitter_cfg.c **** 			{(void CYFAR *)(CYDEV_UDB_P3_ROUTE_BASE), 256u},
 967:Generated_Source\PSoC4/cyfitter_cfg.c **** 			{(void CYFAR *)(CYDEV_UDB_DSI0_BASE), 2048u},
 968:Generated_Source\PSoC4/cyfitter_cfg.c **** 		};
 969:Generated_Source\PSoC4/cyfitter_cfg.c **** 
 970:Generated_Source\PSoC4/cyfitter_cfg.c **** 		/* UDB_0_0_0_CONFIG Address: CYDEV_UDB_P3_U1_BASE Size (bytes): 128 */
 971:Generated_Source\PSoC4/cyfitter_cfg.c **** 		static const uint8 CYCODE BS_UDB_0_0_0_CONFIG_VAL[] = {
 972:Generated_Source\PSoC4/cyfitter_cfg.c **** 			0x00u, 0x04u, 0x06u, 0x01u, 0x00u, 0x08u, 0x06u, 0x01u, 0x00u, 0x10u, 0x02u, 0x01u, 0x02u, 0x00u
 973:Generated_Source\PSoC4/cyfitter_cfg.c **** 			0x01u, 0x20u, 0x06u, 0x01u, 0x02u, 0x02u, 0x00u, 0x01u, 0x00u, 0x00u, 0x02u, 0x00u, 0x01u, 0x00u
 974:Generated_Source\PSoC4/cyfitter_cfg.c **** 			0x00u, 0x80u, 0x02u, 0x01u, 0x02u, 0x00u, 0x00u, 0x00u, 0x00u, 0x40u, 0x07u, 0x01u, 0x02u, 0x01u
 975:Generated_Source\PSoC4/cyfitter_cfg.c **** 			0x04u, 0x00u, 0x00u, 0xFFu, 0x03u, 0x00u, 0x00u, 0x00u, 0x00u, 0x02u, 0x02u, 0x00u, 0x00u, 0x00u
 976:Generated_Source\PSoC4/cyfitter_cfg.c **** 			0x60u, 0x05u, 0x00u, 0x00u, 0x00u, 0x04u, 0xC3u, 0x2Eu, 0x3Du, 0xFFu, 0xFFu, 0xFFu, 0x00u, 0xAFu
 977:Generated_Source\PSoC4/cyfitter_cfg.c **** 			0x18u, 0x00u, 0x00u, 0x00u, 0x00u, 0x00u, 0x00u, 0x00u, 0x04u, 0x04u, 0x04u, 0x00u, 0x00u, 0x00u
 978:Generated_Source\PSoC4/cyfitter_cfg.c **** 			0x40u, 0x00u, 0x80u, 0x00u, 0x40u, 0x40u, 0x80u, 0x00u, 0x40u, 0x00u, 0x80u, 0x00u, 0x40u, 0x20u
 979:Generated_Source\PSoC4/cyfitter_cfg.c **** 			0x00u, 0x00u, 0x00u, 0x00u, 0x00u, 0x00u, 0x00u, 0x00u, 0x00u, 0x00u, 0x00u, 0x00u, 0x00u, 0x00u
 980:Generated_Source\PSoC4/cyfitter_cfg.c **** 
 981:Generated_Source\PSoC4/cyfitter_cfg.c **** 		static const cfg_memcpy_t CYCODE cfg_memcpy_list [] = {
 982:Generated_Source\PSoC4/cyfitter_cfg.c **** 			/* dest, src, size */
 983:Generated_Source\PSoC4/cyfitter_cfg.c **** 			{(void CYFAR *)(CYDEV_UDB_P3_U1_BASE), BS_UDB_0_0_0_CONFIG_VAL, 128u},
 984:Generated_Source\PSoC4/cyfitter_cfg.c **** 		};
 985:Generated_Source\PSoC4/cyfitter_cfg.c **** 
 986:Generated_Source\PSoC4/cyfitter_cfg.c **** 		uint8 CYDATA i;
 987:Generated_Source\PSoC4/cyfitter_cfg.c **** 
 988:Generated_Source\PSoC4/cyfitter_cfg.c **** 		/* Zero out critical memory blocks before beginning configuration */
 989:Generated_Source\PSoC4/cyfitter_cfg.c **** 		for (i = 0u; i < (sizeof(cfg_memset_list)/sizeof(cfg_memset_list[0])); i++)
 321              		.loc 1 989 0
 322 00b2 0024     		movs	r4, #0
 323 00b4 0FE0     		b	.L15
 324              	.LVL21:
 325              	.L16:
 326              	.LBB4:
 990:Generated_Source\PSoC4/cyfitter_cfg.c **** 		{
 991:Generated_Source\PSoC4/cyfitter_cfg.c **** 			const cfg_memset_t CYCODE * CYDATA ms = &cfg_memset_list[i];
 992:Generated_Source\PSoC4/cyfitter_cfg.c **** 			CYMEMZERO(ms->address, (size_t)(uint32)(ms->size));
 327              		.loc 1 992 0 discriminator 3
 328 00b6 5048     		ldr	r0, .L19+4
 329 00b8 6200     		lsls	r2, r4, #1
 330 00ba 1319     		adds	r3, r2, r4
 331 00bc 5900     		lsls	r1, r3, #1
 332 00be 0B00     		movs	r3, r1
 333 00c0 4118     		adds	r1, r0, r1
 334 00c2 8988     		ldrh	r1, [r1, #4]
 335 00c4 1A5A     		ldrh	r2, [r3, r0]
 336 00c6 C318     		adds	r3, r0, r3
 337 00c8 5888     		ldrh	r0, [r3, #2]
 338 00ca 0004     		lsls	r0, r0, #16
 339 00cc 1043     		orrs	r0, r2
 340 00ce FFF7FEFF 		bl	CYMEMZERO
 341              	.LVL22:
 342              	.LBE4:
 989:Generated_Source\PSoC4/cyfitter_cfg.c **** 		{
 343              		.loc 1 989 0 discriminator 3
 344 00d2 0134     		adds	r4, r4, #1
 345              	.LVL23:
 346 00d4 E4B2     		uxtb	r4, r4
 347              	.LVL24:
 348              	.L15:
ARM GAS  C:\Users\casey\AppData\Local\Temp\ccka1yeh.s 			page 25


 989:Generated_Source\PSoC4/cyfitter_cfg.c **** 		{
 349              		.loc 1 989 0 is_stmt 0 discriminator 1
 350 00d6 022C     		cmp	r4, #2
 351 00d8 EDD9     		bls	.L16
 352 00da 0024     		movs	r4, #0
 353              	.LVL25:
 354 00dc 11E0     		b	.L17
 355              	.LVL26:
 356              	.L18:
 357              	.LBB5:
 993:Generated_Source\PSoC4/cyfitter_cfg.c **** 		}
 994:Generated_Source\PSoC4/cyfitter_cfg.c **** 
 995:Generated_Source\PSoC4/cyfitter_cfg.c **** 		/* Copy device configuration data into registers */
 996:Generated_Source\PSoC4/cyfitter_cfg.c **** 		for (i = 0u; i < (sizeof(cfg_memcpy_list)/sizeof(cfg_memcpy_list[0])); i++)
 997:Generated_Source\PSoC4/cyfitter_cfg.c **** 		{
 998:Generated_Source\PSoC4/cyfitter_cfg.c **** 			const cfg_memcpy_t CYCODE * CYDATA mc = &cfg_memcpy_list[i];
 999:Generated_Source\PSoC4/cyfitter_cfg.c **** 			void * CYDATA destPtr = mc->dest;
 358              		.loc 1 999 0 is_stmt 1 discriminator 3
 359 00de 464E     		ldr	r6, .L19+4
 360 00e0 A200     		lsls	r2, r4, #2
 361 00e2 1319     		adds	r3, r2, r4
 362 00e4 5900     		lsls	r1, r3, #1
 363 00e6 7118     		adds	r1, r6, r1
 364 00e8 8D8A     		ldrh	r5, [r1, #20]
 365 00ea C88A     		ldrh	r0, [r1, #22]
 366 00ec 0004     		lsls	r0, r0, #16
 367 00ee 2843     		orrs	r0, r5
 368              	.LVL27:
1000:Generated_Source\PSoC4/cyfitter_cfg.c **** 			const void CYCODE * CYDATA srcPtr = mc->src;
 369              		.loc 1 1000 0 discriminator 3
 370 00f0 0A8B     		ldrh	r2, [r1, #24]
 371 00f2 498B     		ldrh	r1, [r1, #26]
 372 00f4 0904     		lsls	r1, r1, #16
 373 00f6 1143     		orrs	r1, r2
 374              	.LVL28:
1001:Generated_Source\PSoC4/cyfitter_cfg.c **** 			uint16 CYDATA numBytes = mc->size;
1002:Generated_Source\PSoC4/cyfitter_cfg.c **** 			CYCONFIGCPYCODE(destPtr, srcPtr, numBytes);
 375              		.loc 1 1002 0 discriminator 3
 376 00f8 8022     		movs	r2, #128
 377 00fa FFF7FEFF 		bl	CYCONFIGCPYCODE
 378              	.LVL29:
 379              	.LBE5:
 996:Generated_Source\PSoC4/cyfitter_cfg.c **** 		{
 380              		.loc 1 996 0 discriminator 3
 381 00fe 0134     		adds	r4, r4, #1
 382              	.LVL30:
 383 0100 E4B2     		uxtb	r4, r4
 384              	.LVL31:
 385              	.L17:
 996:Generated_Source\PSoC4/cyfitter_cfg.c **** 		{
 386              		.loc 1 996 0 is_stmt 0 discriminator 1
 387 0102 002C     		cmp	r4, #0
 388 0104 EBD0     		beq	.L18
1003:Generated_Source\PSoC4/cyfitter_cfg.c **** 		}
1004:Generated_Source\PSoC4/cyfitter_cfg.c **** 
1005:Generated_Source\PSoC4/cyfitter_cfg.c **** 		cfg_write_bytes32(cy_cfg_addr_table, cy_cfg_data_table);
 389              		.loc 1 1005 0 is_stmt 1
ARM GAS  C:\Users\casey\AppData\Local\Temp\ccka1yeh.s 			page 26


 390 0106 3C49     		ldr	r1, .L19+4
 391 0108 2031     		adds	r1, r1, #32
 392 010a 3C48     		ldr	r0, .L19+8
 393 010c FFF7FEFF 		bl	cfg_write_bytes32
 394              	.LVL32:
1006:Generated_Source\PSoC4/cyfitter_cfg.c **** 
1007:Generated_Source\PSoC4/cyfitter_cfg.c **** 		/* HSIOM Starting address: CYDEV_HSIOM_BASE */
1008:Generated_Source\PSoC4/cyfitter_cfg.c **** 		CY_SET_REG32((void *)(CYDEV_HSIOM_BASE), 0x000000AAu);
 395              		.loc 1 1008 0
 396 0110 AA22     		movs	r2, #170
 397 0112 3B4B     		ldr	r3, .L19+12
 398 0114 1A60     		str	r2, [r3]
1009:Generated_Source\PSoC4/cyfitter_cfg.c **** 		CY_SET_REG32((void *)(CYREG_HSIOM_PORT_SEL1), 0x33000000u);
 399              		.loc 1 1009 0
 400 0116 CC22     		movs	r2, #204
 401 0118 9205     		lsls	r2, r2, #22
 402 011a 3A4B     		ldr	r3, .L19+16
 403 011c 1A60     		str	r2, [r3]
1010:Generated_Source\PSoC4/cyfitter_cfg.c **** 		CY_SET_REG32((void *)(CYREG_HSIOM_PORT_SEL3), 0x0000EE00u);
 404              		.loc 1 1010 0
 405 011e EE22     		movs	r2, #238
 406 0120 1202     		lsls	r2, r2, #8
 407 0122 394B     		ldr	r3, .L19+20
 408 0124 1A60     		str	r2, [r3]
1011:Generated_Source\PSoC4/cyfitter_cfg.c **** 		CY_SET_REG32((void *)(CYREG_HSIOM_PORT_SEL4), 0x00000099u);
 409              		.loc 1 1011 0
 410 0126 9922     		movs	r2, #153
 411 0128 384B     		ldr	r3, .L19+24
 412 012a 1A60     		str	r2, [r3]
1012:Generated_Source\PSoC4/cyfitter_cfg.c **** 		CY_SET_REG32((void *)(CYREG_HSIOM_PORT_SEL5), 0x00000300u);
 413              		.loc 1 1012 0
 414 012c C022     		movs	r2, #192
 415 012e 9200     		lsls	r2, r2, #2
 416 0130 374B     		ldr	r3, .L19+28
 417 0132 1A60     		str	r2, [r3]
1013:Generated_Source\PSoC4/cyfitter_cfg.c **** 		CY_SET_REG32((void *)(CYREG_HSIOM_PORT_SEL11), 0x00030303u);
 418              		.loc 1 1013 0
 419 0134 374A     		ldr	r2, .L19+32
 420 0136 384B     		ldr	r3, .L19+36
 421 0138 1A60     		str	r2, [r3]
1014:Generated_Source\PSoC4/cyfitter_cfg.c **** 
1015:Generated_Source\PSoC4/cyfitter_cfg.c **** 		/* UDB_PA_0 Starting address: CYDEV_UDB_PA0_BASE */
1016:Generated_Source\PSoC4/cyfitter_cfg.c **** 		CY_SET_REG32((void *)(CYDEV_UDB_PA0_BASE), 0x00990000u);
 422              		.loc 1 1016 0
 423 013a 9923     		movs	r3, #153
 424 013c 1B04     		lsls	r3, r3, #16
 425 013e 374A     		ldr	r2, .L19+40
 426 0140 1360     		str	r3, [r2]
1017:Generated_Source\PSoC4/cyfitter_cfg.c **** 		CY_SET_REG32((void *)(CYREG_UDB_PA0_CFG8), 0x00200000u);
 427              		.loc 1 1017 0
 428 0142 8021     		movs	r1, #128
 429 0144 8903     		lsls	r1, r1, #14
 430 0146 364A     		ldr	r2, .L19+44
 431 0148 1160     		str	r1, [r2]
1018:Generated_Source\PSoC4/cyfitter_cfg.c **** 
1019:Generated_Source\PSoC4/cyfitter_cfg.c **** 		/* UDB_PA_1 Starting address: CYDEV_UDB_PA1_BASE */
1020:Generated_Source\PSoC4/cyfitter_cfg.c **** 		CY_SET_REG32((void *)(CYDEV_UDB_PA1_BASE), 0x00990000u);
ARM GAS  C:\Users\casey\AppData\Local\Temp\ccka1yeh.s 			page 27


 432              		.loc 1 1020 0
 433 014a 364A     		ldr	r2, .L19+48
 434 014c 1360     		str	r3, [r2]
1021:Generated_Source\PSoC4/cyfitter_cfg.c **** 		CY_SET_REG32((void *)(CYREG_UDB_PA1_CFG8), 0x60000000u);
 435              		.loc 1 1021 0
 436 014e C021     		movs	r1, #192
 437 0150 C905     		lsls	r1, r1, #23
 438 0152 354A     		ldr	r2, .L19+52
 439 0154 1160     		str	r1, [r2]
1022:Generated_Source\PSoC4/cyfitter_cfg.c **** 
1023:Generated_Source\PSoC4/cyfitter_cfg.c **** 		/* UDB_PA_2 Starting address: CYDEV_UDB_PA2_BASE */
1024:Generated_Source\PSoC4/cyfitter_cfg.c **** 		CY_SET_REG32((void *)(CYDEV_UDB_PA2_BASE), 0x00990000u);
 440              		.loc 1 1024 0
 441 0156 354A     		ldr	r2, .L19+56
 442 0158 1360     		str	r3, [r2]
1025:Generated_Source\PSoC4/cyfitter_cfg.c **** 
1026:Generated_Source\PSoC4/cyfitter_cfg.c **** 		/* UDB_PA_4 Starting address: CYDEV_UDB_PA4_BASE */
1027:Generated_Source\PSoC4/cyfitter_cfg.c **** 		CY_SET_REG32((void *)(CYDEV_UDB_PA4_BASE), 0x00990000u);
 443              		.loc 1 1027 0
 444 015a 354A     		ldr	r2, .L19+60
 445 015c 1360     		str	r3, [r2]
1028:Generated_Source\PSoC4/cyfitter_cfg.c **** 
1029:Generated_Source\PSoC4/cyfitter_cfg.c **** 		/* UDB_PA_5 Starting address: CYDEV_UDB_PA5_BASE */
1030:Generated_Source\PSoC4/cyfitter_cfg.c **** 		CY_SET_REG32((void *)(CYDEV_UDB_PA5_BASE), 0x00990000u);
 446              		.loc 1 1030 0
 447 015e 354A     		ldr	r2, .L19+64
 448 0160 1360     		str	r3, [r2]
1031:Generated_Source\PSoC4/cyfitter_cfg.c **** 
1032:Generated_Source\PSoC4/cyfitter_cfg.c **** 		/* UDB_PA_6 Starting address: CYDEV_UDB_PA6_BASE */
1033:Generated_Source\PSoC4/cyfitter_cfg.c **** 		CY_SET_REG32((void *)(CYDEV_UDB_PA6_BASE), 0x00990000u);
 449              		.loc 1 1033 0
 450 0162 354A     		ldr	r2, .L19+68
 451 0164 1360     		str	r3, [r2]
1034:Generated_Source\PSoC4/cyfitter_cfg.c **** 		CY_SET_REG32((void *)(CYREG_UDB_PA6_CFG8), 0x01000000u);
 452              		.loc 1 1034 0
 453 0166 8021     		movs	r1, #128
 454 0168 4904     		lsls	r1, r1, #17
 455 016a 344A     		ldr	r2, .L19+72
 456 016c 1160     		str	r1, [r2]
1035:Generated_Source\PSoC4/cyfitter_cfg.c **** 
1036:Generated_Source\PSoC4/cyfitter_cfg.c **** 		/* UDB_PA_7 Starting address: CYDEV_UDB_PA7_BASE */
1037:Generated_Source\PSoC4/cyfitter_cfg.c **** 		CY_SET_REG32((void *)(CYDEV_UDB_PA7_BASE), 0x00990000u);
 457              		.loc 1 1037 0
 458 016e 344A     		ldr	r2, .L19+76
 459 0170 1360     		str	r3, [r2]
1038:Generated_Source\PSoC4/cyfitter_cfg.c **** 
1039:Generated_Source\PSoC4/cyfitter_cfg.c **** 		/* INT_SELECT Starting address: CYDEV_CPUSS_INT_SEL */
1040:Generated_Source\PSoC4/cyfitter_cfg.c **** 		CY_SET_REG32((void *)(CYREG_CPUSS_INT_SEL), 0x0000000Fu);
 460              		.loc 1 1040 0
 461 0172 0F23     		movs	r3, #15
 462 0174 334A     		ldr	r2, .L19+80
 463 0176 1360     		str	r3, [r2]
1041:Generated_Source\PSoC4/cyfitter_cfg.c **** 
1042:Generated_Source\PSoC4/cyfitter_cfg.c **** 		/* INT_CONFIG Starting address: CYDEV_UDB_INT_CFG */
1043:Generated_Source\PSoC4/cyfitter_cfg.c **** 		CY_SET_REG32((void *)(CYREG_UDB_INT_CFG), 0x0000000Fu);
 464              		.loc 1 1043 0
 465 0178 334A     		ldr	r2, .L19+84
ARM GAS  C:\Users\casey\AppData\Local\Temp\ccka1yeh.s 			page 28


 466 017a 1360     		str	r3, [r2]
1044:Generated_Source\PSoC4/cyfitter_cfg.c **** 
1045:Generated_Source\PSoC4/cyfitter_cfg.c **** 		/* Enable UDB array and digital routing */
1046:Generated_Source\PSoC4/cyfitter_cfg.c **** 		CY_SET_XTND_REG8((void *)CYREG_UDB_UDB_WAIT_CFG, (uint8)((CY_GET_XTND_REG8((void *)CYREG_UDB_UDB_
 467              		.loc 1 1046 0
 468 017c 3349     		ldr	r1, .L19+88
 469 017e 0B78     		ldrb	r3, [r1]
 470 0180 3C22     		movs	r2, #60
 471 0182 9343     		bics	r3, r2
 472 0184 1422     		movs	r2, #20
 473 0186 1343     		orrs	r3, r2
 474 0188 DBB2     		uxtb	r3, r3
 475 018a 0B70     		strb	r3, [r1]
1047:Generated_Source\PSoC4/cyfitter_cfg.c **** 		CY_SET_XTND_REG8((void *)CYREG_UDB_UDB_BANK_CTL, (uint8)(CY_GET_XTND_REG8((void *)CYREG_UDB_UDB_B
 476              		.loc 1 1047 0
 477 018c 304A     		ldr	r2, .L19+92
 478 018e 1178     		ldrb	r1, [r2]
 479 0190 1623     		movs	r3, #22
 480 0192 0B43     		orrs	r3, r1
 481 0194 DBB2     		uxtb	r3, r3
 482 0196 1370     		strb	r3, [r2]
 483              	.LBE3:
1048:Generated_Source\PSoC4/cyfitter_cfg.c **** 	}
1049:Generated_Source\PSoC4/cyfitter_cfg.c **** 
1050:Generated_Source\PSoC4/cyfitter_cfg.c **** 	/* Perform second pass device configuration. These items must be configured in specific order afte
1051:Generated_Source\PSoC4/cyfitter_cfg.c **** 	/* IOPINS0_0 Starting address: CYDEV_GPIO_PRT0_BASE */
1052:Generated_Source\PSoC4/cyfitter_cfg.c **** 	CY_SET_REG32((void *)(CYDEV_GPIO_PRT0_BASE), 0x00000002u);
 484              		.loc 1 1052 0
 485 0198 0223     		movs	r3, #2
 486 019a 2E4A     		ldr	r2, .L19+96
 487 019c 1360     		str	r3, [r2]
1053:Generated_Source\PSoC4/cyfitter_cfg.c **** 	CY_SET_REG32((void *)(CYREG_GPIO_PRT0_PC), 0x00000031u);
 488              		.loc 1 1053 0
 489 019e 3121     		movs	r1, #49
 490 01a0 2D4A     		ldr	r2, .L19+100
 491 01a2 1160     		str	r1, [r2]
1054:Generated_Source\PSoC4/cyfitter_cfg.c **** 
1055:Generated_Source\PSoC4/cyfitter_cfg.c **** 	/* IOPINS0_11 Starting address: CYDEV_GPIO_PRT11_BASE */
1056:Generated_Source\PSoC4/cyfitter_cfg.c **** 	CY_SET_REG32((void *)(CYDEV_GPIO_PRT11_BASE), 0x000000BFu);
 492              		.loc 1 1056 0
 493 01a4 BF20     		movs	r0, #191
 494 01a6 2D4A     		ldr	r2, .L19+104
 495 01a8 1060     		str	r0, [r2]
1057:Generated_Source\PSoC4/cyfitter_cfg.c **** 	CY_SET_REG32((void *)(CYREG_GPIO_PRT11_PC), 0x00456596u);
 496              		.loc 1 1057 0
 497 01aa 2D48     		ldr	r0, .L19+108
 498 01ac 2D4A     		ldr	r2, .L19+112
 499 01ae 1060     		str	r0, [r2]
1058:Generated_Source\PSoC4/cyfitter_cfg.c **** 
1059:Generated_Source\PSoC4/cyfitter_cfg.c **** 	/* IOPINS0_1 Starting address: CYDEV_GPIO_PRT1_BASE */
1060:Generated_Source\PSoC4/cyfitter_cfg.c **** 	CY_SET_REG32((void *)(CYDEV_GPIO_PRT1_BASE), 0x000000C0u);
 500              		.loc 1 1060 0
 501 01b0 C020     		movs	r0, #192
 502 01b2 2D4A     		ldr	r2, .L19+116
 503 01b4 1060     		str	r0, [r2]
1061:Generated_Source\PSoC4/cyfitter_cfg.c **** 	CY_SET_REG32((void *)(CYREG_GPIO_PRT1_PC), 0x00D80000u);
 504              		.loc 1 1061 0
ARM GAS  C:\Users\casey\AppData\Local\Temp\ccka1yeh.s 			page 29


 505 01b6 D820     		movs	r0, #216
 506 01b8 0004     		lsls	r0, r0, #16
 507 01ba 2C4A     		ldr	r2, .L19+120
 508 01bc 1060     		str	r0, [r2]
1062:Generated_Source\PSoC4/cyfitter_cfg.c **** 
1063:Generated_Source\PSoC4/cyfitter_cfg.c **** 	/* IOPINS0_2 Starting address: CYDEV_GPIO_PRT2_BASE */
1064:Generated_Source\PSoC4/cyfitter_cfg.c **** 	CY_SET_REG32((void *)(CYREG_GPIO_PRT2_PC), 0x00000048u);
 509              		.loc 1 1064 0
 510 01be 4820     		movs	r0, #72
 511 01c0 2B4A     		ldr	r2, .L19+124
 512 01c2 1060     		str	r0, [r2]
1065:Generated_Source\PSoC4/cyfitter_cfg.c **** 	CY_SET_REG32((void *)(CYREG_GPIO_PRT2_INTR_CFG), 0x00000004u);
 513              		.loc 1 1065 0
 514 01c4 0422     		movs	r2, #4
 515 01c6 2B48     		ldr	r0, .L19+128
 516 01c8 0260     		str	r2, [r0]
1066:Generated_Source\PSoC4/cyfitter_cfg.c **** 
1067:Generated_Source\PSoC4/cyfitter_cfg.c **** 	/* IOPINS0_3 Starting address: CYDEV_GPIO_PRT3_BASE */
1068:Generated_Source\PSoC4/cyfitter_cfg.c **** 	CY_SET_REG32((void *)(CYREG_GPIO_PRT3_PC), 0x00000D80u);
 517              		.loc 1 1068 0
 518 01ca D824     		movs	r4, #216
 519              	.LVL33:
 520 01cc 2401     		lsls	r4, r4, #4
 521 01ce 2A48     		ldr	r0, .L19+132
 522 01d0 0460     		str	r4, [r0]
1069:Generated_Source\PSoC4/cyfitter_cfg.c **** 
1070:Generated_Source\PSoC4/cyfitter_cfg.c **** 	/* IOPINS0_4 Starting address: CYDEV_GPIO_PRT4_BASE */
1071:Generated_Source\PSoC4/cyfitter_cfg.c **** 	CY_SET_REG32((void *)(CYDEV_GPIO_PRT4_BASE), 0x00000002u);
 523              		.loc 1 1071 0
 524 01d2 2A48     		ldr	r0, .L19+136
 525 01d4 0360     		str	r3, [r0]
1072:Generated_Source\PSoC4/cyfitter_cfg.c **** 	CY_SET_REG32((void *)(CYREG_GPIO_PRT4_PC), 0x00000031u);
 526              		.loc 1 1072 0
 527 01d6 2A48     		ldr	r0, .L19+140
 528 01d8 0160     		str	r1, [r0]
1073:Generated_Source\PSoC4/cyfitter_cfg.c **** 	CY_SET_REG32((void *)(CYREG_GPIO_PRT4_PC2), 0x00000002u);
 529              		.loc 1 1073 0
 530 01da 2A49     		ldr	r1, .L19+144
 531 01dc 0B60     		str	r3, [r1]
1074:Generated_Source\PSoC4/cyfitter_cfg.c **** 
1075:Generated_Source\PSoC4/cyfitter_cfg.c **** 	/* IOPINS0_5 Starting address: CYDEV_GPIO_PRT5_BASE */
1076:Generated_Source\PSoC4/cyfitter_cfg.c **** 	CY_SET_REG32((void *)(CYDEV_GPIO_PRT5_BASE), 0x00000004u);
 532              		.loc 1 1076 0
 533 01de 2A4B     		ldr	r3, .L19+148
 534 01e0 1A60     		str	r2, [r3]
1077:Generated_Source\PSoC4/cyfitter_cfg.c **** 	CY_SET_REG32((void *)(CYREG_GPIO_PRT5_PC), 0x00000180u);
 535              		.loc 1 1077 0
 536 01e2 7D32     		adds	r2, r2, #125
 537 01e4 FF32     		adds	r2, r2, #255
 538 01e6 294B     		ldr	r3, .L19+152
 539 01e8 1A60     		str	r2, [r3]
1078:Generated_Source\PSoC4/cyfitter_cfg.c **** 
1079:Generated_Source\PSoC4/cyfitter_cfg.c **** 
1080:Generated_Source\PSoC4/cyfitter_cfg.c **** 	/* Setup clocks based on selections from Clock DWR */
1081:Generated_Source\PSoC4/cyfitter_cfg.c **** 	ClockSetup();
 540              		.loc 1 1081 0
 541 01ea FFF709FF 		bl	ClockSetup
ARM GAS  C:\Users\casey\AppData\Local\Temp\ccka1yeh.s 			page 30


 542              	.LVL34:
1082:Generated_Source\PSoC4/cyfitter_cfg.c **** 
1083:Generated_Source\PSoC4/cyfitter_cfg.c **** 	/* Perform basic analog initialization to defaults */
1084:Generated_Source\PSoC4/cyfitter_cfg.c **** 	AnalogSetDefault();
 543              		.loc 1 1084 0
 544 01ee FFF7FEFF 		bl	AnalogSetDefault
 545              	.LVL35:
1085:Generated_Source\PSoC4/cyfitter_cfg.c **** 
1086:Generated_Source\PSoC4/cyfitter_cfg.c **** }
 546              		.loc 1 1086 0
 547              		@ sp needed
 548 01f2 70BD     		pop	{r4, r5, r6, pc}
 549              	.L20:
 550              		.align	2
 551              	.L19:
 552 01f4 1C700F40 		.word	1074753564
 553 01f8 00000000 		.word	.LANCHOR0
 554 01fc 00050000 		.word	.LANCHOR1
 555 0200 00000240 		.word	1073872896
 556 0204 00010240 		.word	1073873152
 557 0208 00030240 		.word	1073873664
 558 020c 00040240 		.word	1073873920
 559 0210 00050240 		.word	1073874176
 560 0214 03030300 		.word	197379
 561 0218 000B0240 		.word	1073875712
 562 021c 00500F40 		.word	1074745344
 563 0220 08500F40 		.word	1074745352
 564 0224 10500F40 		.word	1074745360
 565 0228 18500F40 		.word	1074745368
 566 022c 20500F40 		.word	1074745376
 567 0230 40500F40 		.word	1074745408
 568 0234 50500F40 		.word	1074745424
 569 0238 60500F40 		.word	1074745440
 570 023c 68500F40 		.word	1074745448
 571 0240 70500F40 		.word	1074745456
 572 0244 20001040 		.word	1074790432
 573 0248 00800F40 		.word	1074757632
 574 024c 01700F40 		.word	1074753537
 575 0250 00700F40 		.word	1074753536
 576 0254 00000440 		.word	1074003968
 577 0258 08000440 		.word	1074003976
 578 025c 000B0440 		.word	1074006784
 579 0260 96654500 		.word	4547990
 580 0264 080B0440 		.word	1074006792
 581 0268 00010440 		.word	1074004224
 582 026c 08010440 		.word	1074004232
 583 0270 08020440 		.word	1074004488
 584 0274 0C020440 		.word	1074004492
 585 0278 08030440 		.word	1074004744
 586 027c 00040440 		.word	1074004992
 587 0280 08040440 		.word	1074005000
 588 0284 18040440 		.word	1074005016
 589 0288 00050440 		.word	1074005248
 590 028c 08050440 		.word	1074005256
 591              		.cfi_endproc
 592              	.LFE7:
 593              		.size	cyfitter_cfg, .-cyfitter_cfg
ARM GAS  C:\Users\casey\AppData\Local\Temp\ccka1yeh.s 			page 31


 594              		.section	.rodata
 595              		.align	2
 596              		.set	.LANCHOR0,. + 0
 597              		.set	.LANCHOR1,. + 1280
 598              		.type	cfg_memset_list.4976, %object
 599              		.size	cfg_memset_list.4976, 18
 600              	cfg_memset_list.4976:
 601 0000 00300F40 		.word	1074737152
 602 0004 8006     		.short	1664
 603 0006 00370F40 		.4byte	1074738944
 604 000a 0001     		.short	256
 605 000c 00400F40 		.word	1074741248
 606 0010 0008     		.short	2048
 607 0012 0000     		.space	2
 608              		.type	cfg_memcpy_list.4978, %object
 609              		.size	cfg_memcpy_list.4978, 10
 610              	cfg_memcpy_list.4978:
 611 0014 80360F40 		.word	1074738816
 612 0018 44050000 		.word	BS_UDB_0_0_0_CONFIG_VAL.4977
 613 001c 8000     		.short	128
 614 001e 0000     		.space	2
 615              		.type	cy_cfg_data_table.4966, %object
 616              		.size	cy_cfg_data_table.4966, 1248
 617              	cy_cfg_data_table.4966:
 618 0020 83       		.byte	-125
 619 0021 6F       		.byte	111
 620 0022 01       		.byte	1
 621 0023 05       		.byte	5
 622 0024 02       		.byte	2
 623 0025 01       		.byte	1
 624 0026 05       		.byte	5
 625 0027 01       		.byte	1
 626 0028 06       		.byte	6
 627 0029 01       		.byte	1
 628 002a 09       		.byte	9
 629 002b 02       		.byte	2
 630 002c 0A       		.byte	10
 631 002d 09       		.byte	9
 632 002e 0D       		.byte	13
 633 002f 01       		.byte	1
 634 0030 0E       		.byte	14
 635 0031 09       		.byte	9
 636 0032 12       		.byte	18
 637 0033 07       		.byte	7
 638 0034 13       		.byte	19
 639 0035 01       		.byte	1
 640 0036 14       		.byte	20
 641 0037 01       		.byte	1
 642 0038 17       		.byte	23
 643 0039 05       		.byte	5
 644 003a 18       		.byte	24
 645 003b 01       		.byte	1
 646 003c 19       		.byte	25
 647 003d 01       		.byte	1
 648 003e 1E       		.byte	30
 649 003f 05       		.byte	5
 650 0040 1F       		.byte	31
ARM GAS  C:\Users\casey\AppData\Local\Temp\ccka1yeh.s 			page 32


 651 0041 05       		.byte	5
 652 0042 21       		.byte	33
 653 0043 05       		.byte	5
 654 0044 22       		.byte	34
 655 0045 01       		.byte	1
 656 0046 24       		.byte	36
 657 0047 09       		.byte	9
 658 0048 25       		.byte	37
 659 0049 01       		.byte	1
 660 004a 2A       		.byte	42
 661 004b 07       		.byte	7
 662 004c 2B       		.byte	43
 663 004d 01       		.byte	1
 664 004e 2C       		.byte	44
 665 004f 09       		.byte	9
 666 0050 2F       		.byte	47
 667 0051 01       		.byte	1
 668 0052 30       		.byte	48
 669 0053 01       		.byte	1
 670 0054 31       		.byte	49
 671 0055 03       		.byte	3
 672 0056 32       		.byte	50
 673 0057 04       		.byte	4
 674 0058 34       		.byte	52
 675 0059 08       		.byte	8
 676 005a 35       		.byte	53
 677 005b 04       		.byte	4
 678 005c 36       		.byte	54
 679 005d 02       		.byte	2
 680 005e 3A       		.byte	58
 681 005f 88       		.byte	-120
 682 0060 3E       		.byte	62
 683 0061 11       		.byte	17
 684 0062 3F       		.byte	63
 685 0063 11       		.byte	17
 686 0064 58       		.byte	88
 687 0065 04       		.byte	4
 688 0066 59       		.byte	89
 689 0067 04       		.byte	4
 690 0068 5F       		.byte	95
 691 0069 01       		.byte	1
 692 006a 82       		.byte	-126
 693 006b 03       		.byte	3
 694 006c 83       		.byte	-125
 695 006d 01       		.byte	1
 696 006e 87       		.byte	-121
 697 006f 0D       		.byte	13
 698 0070 8B       		.byte	-117
 699 0071 05       		.byte	5
 700 0072 8D       		.byte	-115
 701 0073 08       		.byte	8
 702 0074 92       		.byte	-110
 703 0075 04       		.byte	4
 704 0076 93       		.byte	-109
 705 0077 0D       		.byte	13
 706 0078 97       		.byte	-105
 707 0079 0D       		.byte	13
ARM GAS  C:\Users\casey\AppData\Local\Temp\ccka1yeh.s 			page 33


 708 007a 9C       		.byte	-100
 709 007b 01       		.byte	1
 710 007c A2       		.byte	-94
 711 007d 01       		.byte	1
 712 007e A3       		.byte	-93
 713 007f 0D       		.byte	13
 714 0080 AB       		.byte	-85
 715 0081 05       		.byte	5
 716 0082 AF       		.byte	-81
 717 0083 02       		.byte	2
 718 0084 B1       		.byte	-79
 719 0085 04       		.byte	4
 720 0086 B2       		.byte	-78
 721 0087 04       		.byte	4
 722 0088 B3       		.byte	-77
 723 0089 03       		.byte	3
 724 008a B4       		.byte	-76
 725 008b 01       		.byte	1
 726 008c B5       		.byte	-75
 727 008d 08       		.byte	8
 728 008e B6       		.byte	-74
 729 008f 02       		.byte	2
 730 0090 BB       		.byte	-69
 731 0091 2A       		.byte	42
 732 0092 BE       		.byte	-66
 733 0093 10       		.byte	16
 734 0094 D2       		.byte	-46
 735 0095 80       		.byte	-128
 736 0096 D8       		.byte	-40
 737 0097 04       		.byte	4
 738 0098 D9       		.byte	-39
 739 0099 04       		.byte	4
 740 009a DB       		.byte	-37
 741 009b 04       		.byte	4
 742 009c DF       		.byte	-33
 743 009d 01       		.byte	1
 744 009e 00       		.byte	0
 745 009f 04       		.byte	4
 746 00a0 03       		.byte	3
 747 00a1 85       		.byte	-123
 748 00a2 04       		.byte	4
 749 00a3 02       		.byte	2
 750 00a4 08       		.byte	8
 751 00a5 04       		.byte	4
 752 00a6 0A       		.byte	10
 753 00a7 02       		.byte	2
 754 00a8 0B       		.byte	11
 755 00a9 88       		.byte	-120
 756 00aa 0D       		.byte	13
 757 00ab 02       		.byte	2
 758 00ac 0E       		.byte	14
 759 00ad 02       		.byte	2
 760 00ae 10       		.byte	16
 761 00af 40       		.byte	64
 762 00b0 12       		.byte	18
 763 00b1 0A       		.byte	10
 764 00b2 13       		.byte	19
ARM GAS  C:\Users\casey\AppData\Local\Temp\ccka1yeh.s 			page 34


 765 00b3 08       		.byte	8
 766 00b4 16       		.byte	22
 767 00b5 80       		.byte	-128
 768 00b6 18       		.byte	24
 769 00b7 08       		.byte	8
 770 00b8 1A       		.byte	26
 771 00b9 02       		.byte	2
 772 00ba 1B       		.byte	27
 773 00bb 46       		.byte	70
 774 00bc 1C       		.byte	28
 775 00bd 08       		.byte	8
 776 00be 1E       		.byte	30
 777 00bf 02       		.byte	2
 778 00c0 1F       		.byte	31
 779 00c1 08       		.byte	8
 780 00c2 20       		.byte	32
 781 00c3 04       		.byte	4
 782 00c4 23       		.byte	35
 783 00c5 40       		.byte	64
 784 00c6 24       		.byte	36
 785 00c7 80       		.byte	-128
 786 00c8 25       		.byte	37
 787 00c9 39       		.byte	57
 788 00ca 26       		.byte	38
 789 00cb 02       		.byte	2
 790 00cc 27       		.byte	39
 791 00cd 68       		.byte	104
 792 00ce 28       		.byte	40
 793 00cf 80       		.byte	-128
 794 00d0 29       		.byte	41
 795 00d1 84       		.byte	-124
 796 00d2 2B       		.byte	43
 797 00d3 04       		.byte	4
 798 00d4 2E       		.byte	46
 799 00d5 20       		.byte	32
 800 00d6 2F       		.byte	47
 801 00d7 42       		.byte	66
 802 00d8 31       		.byte	49
 803 00d9 28       		.byte	40
 804 00da 32       		.byte	50
 805 00db 81       		.byte	-127
 806 00dc 36       		.byte	54
 807 00dd 08       		.byte	8
 808 00de 37       		.byte	55
 809 00df 01       		.byte	1
 810 00e0 38       		.byte	56
 811 00e1 A0       		.byte	-96
 812 00e2 3A       		.byte	58
 813 00e3 20       		.byte	32
 814 00e4 3B       		.byte	59
 815 00e5 0A       		.byte	10
 816 00e6 3D       		.byte	61
 817 00e7 22       		.byte	34
 818 00e8 3E       		.byte	62
 819 00e9 08       		.byte	8
 820 00ea 3F       		.byte	63
 821 00eb 40       		.byte	64
ARM GAS  C:\Users\casey\AppData\Local\Temp\ccka1yeh.s 			page 35


 822 00ec 58       		.byte	88
 823 00ed 40       		.byte	64
 824 00ee 59       		.byte	89
 825 00ef 90       		.byte	-112
 826 00f0 5A       		.byte	90
 827 00f1 40       		.byte	64
 828 00f2 5B       		.byte	91
 829 00f3 20       		.byte	32
 830 00f4 76       		.byte	118
 831 00f5 80       		.byte	-128
 832 00f6 83       		.byte	-125
 833 00f7 08       		.byte	8
 834 00f8 C0       		.byte	-64
 835 00f9 1F       		.byte	31
 836 00fa C2       		.byte	-62
 837 00fb 9F       		.byte	-97
 838 00fc C4       		.byte	-60
 839 00fd 1F       		.byte	31
 840 00fe CA       		.byte	-54
 841 00ff BF       		.byte	-65
 842 0100 CC       		.byte	-52
 843 0101 CF       		.byte	-49
 844 0102 CE       		.byte	-50
 845 0103 FF       		.byte	-1
 846 0104 00       		.byte	0
 847 0105 01       		.byte	1
 848 0106 03       		.byte	3
 849 0107 01       		.byte	1
 850 0108 04       		.byte	4
 851 0109 20       		.byte	32
 852 010a 06       		.byte	6
 853 010b 19       		.byte	25
 854 010c 07       		.byte	7
 855 010d 03       		.byte	3
 856 010e 08       		.byte	8
 857 010f 20       		.byte	32
 858 0110 09       		.byte	9
 859 0111 01       		.byte	1
 860 0112 0A       		.byte	10
 861 0113 11       		.byte	17
 862 0114 0B       		.byte	11
 863 0115 02       		.byte	2
 864 0116 0C       		.byte	12
 865 0117 01       		.byte	1
 866 0118 0F       		.byte	15
 867 0119 03       		.byte	3
 868 011a 12       		.byte	18
 869 011b 01       		.byte	1
 870 011c 13       		.byte	19
 871 011d 01       		.byte	1
 872 011e 14       		.byte	20
 873 011f 01       		.byte	1
 874 0120 15       		.byte	21
 875 0121 01       		.byte	1
 876 0122 17       		.byte	23
 877 0123 02       		.byte	2
 878 0124 18       		.byte	24
ARM GAS  C:\Users\casey\AppData\Local\Temp\ccka1yeh.s 			page 36


 879 0125 02       		.byte	2
 880 0126 19       		.byte	25
 881 0127 01       		.byte	1
 882 0128 1B       		.byte	27
 883 0129 02       		.byte	2
 884 012a 1C       		.byte	28
 885 012b 04       		.byte	4
 886 012c 1F       		.byte	31
 887 012d 03       		.byte	3
 888 012e 22       		.byte	34
 889 012f 21       		.byte	33
 890 0130 23       		.byte	35
 891 0131 03       		.byte	3
 892 0132 24       		.byte	36
 893 0133 31       		.byte	49
 894 0134 27       		.byte	39
 895 0135 01       		.byte	1
 896 0136 28       		.byte	40
 897 0137 01       		.byte	1
 898 0138 29       		.byte	41
 899 0139 01       		.byte	1
 900 013a 2C       		.byte	44
 901 013b 19       		.byte	25
 902 013c 2D       		.byte	45
 903 013d 01       		.byte	1
 904 013e 2E       		.byte	46
 905 013f 20       		.byte	32
 906 0140 2F       		.byte	47
 907 0141 02       		.byte	2
 908 0142 30       		.byte	48
 909 0143 10       		.byte	16
 910 0144 31       		.byte	49
 911 0145 01       		.byte	1
 912 0146 32       		.byte	50
 913 0147 07       		.byte	7
 914 0148 33       		.byte	51
 915 0149 02       		.byte	2
 916 014a 34       		.byte	52
 917 014b 20       		.byte	32
 918 014c 36       		.byte	54
 919 014d 08       		.byte	8
 920 014e 3E       		.byte	62
 921 014f 55       		.byte	85
 922 0150 3F       		.byte	63
 923 0151 05       		.byte	5
 924 0152 58       		.byte	88
 925 0153 04       		.byte	4
 926 0154 59       		.byte	89
 927 0155 04       		.byte	4
 928 0156 5B       		.byte	91
 929 0157 04       		.byte	4
 930 0158 5F       		.byte	95
 931 0159 01       		.byte	1
 932 015a 86       		.byte	-122
 933 015b 03       		.byte	3
 934 015c 8F       		.byte	-113
 935 015d 02       		.byte	2
ARM GAS  C:\Users\casey\AppData\Local\Temp\ccka1yeh.s 			page 37


 936 015e 90       		.byte	-112
 937 015f 01       		.byte	1
 938 0160 94       		.byte	-108
 939 0161 04       		.byte	4
 940 0162 99       		.byte	-103
 941 0163 01       		.byte	1
 942 0164 9D       		.byte	-99
 943 0165 02       		.byte	2
 944 0166 A2       		.byte	-94
 945 0167 0C       		.byte	12
 946 0168 AF       		.byte	-81
 947 0169 05       		.byte	5
 948 016a B0       		.byte	-80
 949 016b 02       		.byte	2
 950 016c B2       		.byte	-78
 951 016d 08       		.byte	8
 952 016e B3       		.byte	-77
 953 016f 02       		.byte	2
 954 0170 B4       		.byte	-76
 955 0171 04       		.byte	4
 956 0172 B5       		.byte	-75
 957 0173 04       		.byte	4
 958 0174 B6       		.byte	-74
 959 0175 01       		.byte	1
 960 0176 B7       		.byte	-73
 961 0177 01       		.byte	1
 962 0178 BE       		.byte	-66
 963 0179 50       		.byte	80
 964 017a BF       		.byte	-65
 965 017b 44       		.byte	68
 966 017c D4       		.byte	-44
 967 017d 0F       		.byte	15
 968 017e D6       		.byte	-42
 969 017f 04       		.byte	4
 970 0180 D8       		.byte	-40
 971 0181 04       		.byte	4
 972 0182 D9       		.byte	-39
 973 0183 04       		.byte	4
 974 0184 DB       		.byte	-37
 975 0185 04       		.byte	4
 976 0186 DF       		.byte	-33
 977 0187 01       		.byte	1
 978 0188 01       		.byte	1
 979 0189 08       		.byte	8
 980 018a 05       		.byte	5
 981 018b 80       		.byte	-128
 982 018c 06       		.byte	6
 983 018d 48       		.byte	72
 984 018e 07       		.byte	7
 985 018f 24       		.byte	36
 986 0190 0A       		.byte	10
 987 0191 A0       		.byte	-96
 988 0192 0C       		.byte	12
 989 0193 40       		.byte	64
 990 0194 0E       		.byte	14
 991 0195 80       		.byte	-128
 992 0196 0F       		.byte	15
ARM GAS  C:\Users\casey\AppData\Local\Temp\ccka1yeh.s 			page 38


 993 0197 28       		.byte	40
 994 0198 10       		.byte	16
 995 0199 80       		.byte	-128
 996 019a 14       		.byte	20
 997 019b 04       		.byte	4
 998 019c 16       		.byte	22
 999 019d 20       		.byte	32
 1000 019e 17       		.byte	23
 1001 019f 49       		.byte	73
 1002 01a0 19       		.byte	25
 1003 01a1 40       		.byte	64
 1004 01a2 1A       		.byte	26
 1005 01a3 A8       		.byte	-88
 1006 01a4 1C       		.byte	28
 1007 01a5 82       		.byte	-126
 1008 01a6 1E       		.byte	30
 1009 01a7 14       		.byte	20
 1010 01a8 22       		.byte	34
 1011 01a9 28       		.byte	40
 1012 01aa 23       		.byte	35
 1013 01ab 12       		.byte	18
 1014 01ac 24       		.byte	36
 1015 01ad 20       		.byte	32
 1016 01ae 25       		.byte	37
 1017 01af 05       		.byte	5
 1018 01b0 28       		.byte	40
 1019 01b1 40       		.byte	64
 1020 01b2 29       		.byte	41
 1021 01b3 20       		.byte	32
 1022 01b4 2A       		.byte	42
 1023 01b5 02       		.byte	2
 1024 01b6 2B       		.byte	43
 1025 01b7 4A       		.byte	74
 1026 01b8 2D       		.byte	45
 1027 01b9 80       		.byte	-128
 1028 01ba 2E       		.byte	46
 1029 01bb 2A       		.byte	42
 1030 01bc 2F       		.byte	47
 1031 01bd 01       		.byte	1
 1032 01be 32       		.byte	50
 1033 01bf 60       		.byte	96
 1034 01c0 34       		.byte	52
 1035 01c1 04       		.byte	4
 1036 01c2 35       		.byte	53
 1037 01c3 24       		.byte	36
 1038 01c4 36       		.byte	54
 1039 01c5 C4       		.byte	-60
 1040 01c6 37       		.byte	55
 1041 01c7 01       		.byte	1
 1042 01c8 39       		.byte	57
 1043 01c9 40       		.byte	64
 1044 01ca 3C       		.byte	60
 1045 01cb 22       		.byte	34
 1046 01cc 3E       		.byte	62
 1047 01cd 40       		.byte	64
 1048 01ce 3F       		.byte	63
 1049 01cf 28       		.byte	40
ARM GAS  C:\Users\casey\AppData\Local\Temp\ccka1yeh.s 			page 39


 1050 01d0 44       		.byte	68
 1051 01d1 80       		.byte	-128
 1052 01d2 46       		.byte	70
 1053 01d3 40       		.byte	64
 1054 01d4 59       		.byte	89
 1055 01d5 40       		.byte	64
 1056 01d6 5A       		.byte	90
 1057 01d7 08       		.byte	8
 1058 01d8 5B       		.byte	91
 1059 01d9 12       		.byte	18
 1060 01da 61       		.byte	97
 1061 01db 28       		.byte	40
 1062 01dc 62       		.byte	98
 1063 01dd 02       		.byte	2
 1064 01de 69       		.byte	105
 1065 01df 40       		.byte	64
 1066 01e0 6C       		.byte	108
 1067 01e1 02       		.byte	2
 1068 01e2 80       		.byte	-128
 1069 01e3 81       		.byte	-127
 1070 01e4 81       		.byte	-127
 1071 01e5 20       		.byte	32
 1072 01e6 85       		.byte	-123
 1073 01e7 02       		.byte	2
 1074 01e8 8E       		.byte	-114
 1075 01e9 02       		.byte	2
 1076 01ea 8F       		.byte	-113
 1077 01eb 12       		.byte	18
 1078 01ec 90       		.byte	-112
 1079 01ed 08       		.byte	8
 1080 01ee 94       		.byte	-108
 1081 01ef 22       		.byte	34
 1082 01f0 96       		.byte	-106
 1083 01f1 40       		.byte	64
 1084 01f2 97       		.byte	-105
 1085 01f3 8A       		.byte	-118
 1086 01f4 99       		.byte	-103
 1087 01f5 10       		.byte	16
 1088 01f6 9B       		.byte	-101
 1089 01f7 68       		.byte	104
 1090 01f8 9C       		.byte	-100
 1091 01f9 84       		.byte	-124
 1092 01fa 9D       		.byte	-99
 1093 01fb 04       		.byte	4
 1094 01fc 9E       		.byte	-98
 1095 01fd 08       		.byte	8
 1096 01fe 9F       		.byte	-97
 1097 01ff 05       		.byte	5
 1098 0200 A0       		.byte	-96
 1099 0201 04       		.byte	4
 1100 0202 A3       		.byte	-93
 1101 0203 44       		.byte	68
 1102 0204 A5       		.byte	-91
 1103 0205 02       		.byte	2
 1104 0206 A6       		.byte	-90
 1105 0207 88       		.byte	-120
 1106 0208 AB       		.byte	-85
ARM GAS  C:\Users\casey\AppData\Local\Temp\ccka1yeh.s 			page 40


 1107 0209 84       		.byte	-124
 1108 020a C0       		.byte	-64
 1109 020b F4       		.byte	-12
 1110 020c C2       		.byte	-62
 1111 020d FC       		.byte	-4
 1112 020e C4       		.byte	-60
 1113 020f F8       		.byte	-8
 1114 0210 CA       		.byte	-54
 1115 0211 F8       		.byte	-8
 1116 0212 CC       		.byte	-52
 1117 0213 FC       		.byte	-4
 1118 0214 CE       		.byte	-50
 1119 0215 F8       		.byte	-8
 1120 0216 D6       		.byte	-42
 1121 0217 0F       		.byte	15
 1122 0218 D8       		.byte	-40
 1123 0219 07       		.byte	7
 1124 021a E6       		.byte	-26
 1125 021b 10       		.byte	16
 1126 021c EE       		.byte	-18
 1127 021d 02       		.byte	2
 1128 021e 01       		.byte	1
 1129 021f 82       		.byte	-126
 1130 0220 03       		.byte	3
 1131 0221 01       		.byte	1
 1132 0222 04       		.byte	4
 1133 0223 01       		.byte	1
 1134 0224 07       		.byte	7
 1135 0225 80       		.byte	-128
 1136 0226 09       		.byte	9
 1137 0227 88       		.byte	-120
 1138 0228 0B       		.byte	11
 1139 0229 01       		.byte	1
 1140 022a 0F       		.byte	15
 1141 022b 80       		.byte	-128
 1142 022c 11       		.byte	17
 1143 022d 40       		.byte	64
 1144 022e 13       		.byte	19
 1145 022f 81       		.byte	-127
 1146 0230 17       		.byte	23
 1147 0231 80       		.byte	-128
 1148 0232 1B       		.byte	27
 1149 0233 80       		.byte	-128
 1150 0234 1D       		.byte	29
 1151 0235 81       		.byte	-127
 1152 0236 1F       		.byte	31
 1153 0237 7E       		.byte	126
 1154 0238 21       		.byte	33
 1155 0239 10       		.byte	16
 1156 023a 23       		.byte	35
 1157 023b 81       		.byte	-127
 1158 023c 25       		.byte	37
 1159 023d 84       		.byte	-124
 1160 023e 27       		.byte	39
 1161 023f 01       		.byte	1
 1162 0240 29       		.byte	41
 1163 0241 20       		.byte	32
ARM GAS  C:\Users\casey\AppData\Local\Temp\ccka1yeh.s 			page 41


 1164 0242 2B       		.byte	43
 1165 0243 81       		.byte	-127
 1166 0244 2C       		.byte	44
 1167 0245 01       		.byte	1
 1168 0246 2D       		.byte	45
 1169 0247 80       		.byte	-128
 1170 0248 31       		.byte	49
 1171 0249 80       		.byte	-128
 1172 024a 35       		.byte	53
 1173 024b 7F       		.byte	127
 1174 024c 36       		.byte	54
 1175 024d 01       		.byte	1
 1176 024e 3A       		.byte	58
 1177 024f C0       		.byte	-64
 1178 0250 3F       		.byte	63
 1179 0251 11       		.byte	17
 1180 0252 40       		.byte	64
 1181 0253 60       		.byte	96
 1182 0254 41       		.byte	65
 1183 0255 05       		.byte	5
 1184 0256 49       		.byte	73
 1185 0257 FF       		.byte	-1
 1186 0258 4A       		.byte	74
 1187 0259 FF       		.byte	-1
 1188 025a 4B       		.byte	75
 1189 025b FF       		.byte	-1
 1190 025c 4D       		.byte	77
 1191 025d A0       		.byte	-96
 1192 025e 4F       		.byte	79
 1193 025f 01       		.byte	1
 1194 0260 50       		.byte	80
 1195 0261 18       		.byte	24
 1196 0262 58       		.byte	88
 1197 0263 04       		.byte	4
 1198 0264 59       		.byte	89
 1199 0265 04       		.byte	4
 1200 0266 5A       		.byte	90
 1201 0267 04       		.byte	4
 1202 0268 5B       		.byte	91
 1203 0269 04       		.byte	4
 1204 026a 5F       		.byte	95
 1205 026b 01       		.byte	1
 1206 026c 60       		.byte	96
 1207 026d 40       		.byte	64
 1208 026e 62       		.byte	98
 1209 026f 80       		.byte	-128
 1210 0270 64       		.byte	100
 1211 0271 40       		.byte	64
 1212 0272 65       		.byte	101
 1213 0273 40       		.byte	64
 1214 0274 66       		.byte	102
 1215 0275 80       		.byte	-128
 1216 0276 68       		.byte	104
 1217 0277 40       		.byte	64
 1218 0278 6A       		.byte	106
 1219 0279 80       		.byte	-128
 1220 027a 6C       		.byte	108
ARM GAS  C:\Users\casey\AppData\Local\Temp\ccka1yeh.s 			page 42


 1221 027b 40       		.byte	64
 1222 027c 6D       		.byte	109
 1223 027d 20       		.byte	32
 1224 027e 6E       		.byte	110
 1225 027f 80       		.byte	-128
 1226 0280 81       		.byte	-127
 1227 0281 38       		.byte	56
 1228 0282 82       		.byte	-126
 1229 0283 07       		.byte	7
 1230 0284 84       		.byte	-124
 1231 0285 01       		.byte	1
 1232 0286 86       		.byte	-122
 1233 0287 04       		.byte	4
 1234 0288 87       		.byte	-121
 1235 0289 05       		.byte	5
 1236 028a 88       		.byte	-120
 1237 028b 01       		.byte	1
 1238 028c 89       		.byte	-119
 1239 028d 40       		.byte	64
 1240 028e 8A       		.byte	-118
 1241 028f 06       		.byte	6
 1242 0290 8E       		.byte	-114
 1243 0291 07       		.byte	7
 1244 0292 90       		.byte	-112
 1245 0293 01       		.byte	1
 1246 0294 93       		.byte	-109
 1247 0295 01       		.byte	1
 1248 0296 96       		.byte	-106
 1249 0297 07       		.byte	7
 1250 0298 9A       		.byte	-102
 1251 0299 07       		.byte	7
 1252 029a 9B       		.byte	-101
 1253 029b 10       		.byte	16
 1254 029c 9E       		.byte	-98
 1255 029d 01       		.byte	1
 1256 029e 9F       		.byte	-97
 1257 029f 28       		.byte	40
 1258 02a0 A1       		.byte	-95
 1259 02a1 08       		.byte	8
 1260 02a2 A2       		.byte	-94
 1261 02a3 01       		.byte	1
 1262 02a4 A3       		.byte	-93
 1263 02a5 55       		.byte	85
 1264 02a6 A6       		.byte	-90
 1265 02a7 07       		.byte	7
 1266 02a8 A7       		.byte	-89
 1267 02a9 02       		.byte	2
 1268 02aa A9       		.byte	-87
 1269 02ab 20       		.byte	32
 1270 02ac AA       		.byte	-86
 1271 02ad 01       		.byte	1
 1272 02ae AB       		.byte	-85
 1273 02af 55       		.byte	85
 1274 02b0 AC       		.byte	-84
 1275 02b1 01       		.byte	1
 1276 02b2 AF       		.byte	-81
 1277 02b3 40       		.byte	64
ARM GAS  C:\Users\casey\AppData\Local\Temp\ccka1yeh.s 			page 43


 1278 02b4 B0       		.byte	-80
 1279 02b5 04       		.byte	4
 1280 02b6 B1       		.byte	-79
 1281 02b7 38       		.byte	56
 1282 02b8 B2       		.byte	-78
 1283 02b9 02       		.byte	2
 1284 02ba B3       		.byte	-77
 1285 02bb 40       		.byte	64
 1286 02bc B4       		.byte	-76
 1287 02bd 01       		.byte	1
 1288 02be B5       		.byte	-75
 1289 02bf 03       		.byte	3
 1290 02c0 B7       		.byte	-73
 1291 02c1 06       		.byte	6
 1292 02c2 BA       		.byte	-70
 1293 02c3 0A       		.byte	10
 1294 02c4 BB       		.byte	-69
 1295 02c5 A8       		.byte	-88
 1296 02c6 BE       		.byte	-66
 1297 02c7 10       		.byte	16
 1298 02c8 C0       		.byte	-64
 1299 02c9 60       		.byte	96
 1300 02ca C1       		.byte	-63
 1301 02cb 05       		.byte	5
 1302 02cc C9       		.byte	-55
 1303 02cd FF       		.byte	-1
 1304 02ce CA       		.byte	-54
 1305 02cf FF       		.byte	-1
 1306 02d0 CB       		.byte	-53
 1307 02d1 FF       		.byte	-1
 1308 02d2 CD       		.byte	-51
 1309 02d3 AF       		.byte	-81
 1310 02d4 CE       		.byte	-50
 1311 02d5 07       		.byte	7
 1312 02d6 CF       		.byte	-49
 1313 02d7 01       		.byte	1
 1314 02d8 D0       		.byte	-48
 1315 02d9 18       		.byte	24
 1316 02da D8       		.byte	-40
 1317 02db 04       		.byte	4
 1318 02dc D9       		.byte	-39
 1319 02dd 04       		.byte	4
 1320 02de DA       		.byte	-38
 1321 02df 04       		.byte	4
 1322 02e0 DF       		.byte	-33
 1323 02e1 01       		.byte	1
 1324 02e2 E0       		.byte	-32
 1325 02e3 40       		.byte	64
 1326 02e4 E2       		.byte	-30
 1327 02e5 80       		.byte	-128
 1328 02e6 E4       		.byte	-28
 1329 02e7 40       		.byte	64
 1330 02e8 E5       		.byte	-27
 1331 02e9 40       		.byte	64
 1332 02ea E6       		.byte	-26
 1333 02eb 80       		.byte	-128
 1334 02ec E8       		.byte	-24
ARM GAS  C:\Users\casey\AppData\Local\Temp\ccka1yeh.s 			page 44


 1335 02ed 40       		.byte	64
 1336 02ee EA       		.byte	-22
 1337 02ef 80       		.byte	-128
 1338 02f0 EC       		.byte	-20
 1339 02f1 40       		.byte	64
 1340 02f2 ED       		.byte	-19
 1341 02f3 20       		.byte	32
 1342 02f4 EE       		.byte	-18
 1343 02f5 80       		.byte	-128
 1344 02f6 00       		.byte	0
 1345 02f7 04       		.byte	4
 1346 02f8 04       		.byte	4
 1347 02f9 20       		.byte	32
 1348 02fa 05       		.byte	5
 1349 02fb 05       		.byte	5
 1350 02fc 06       		.byte	6
 1351 02fd 01       		.byte	1
 1352 02fe 0D       		.byte	13
 1353 02ff 02       		.byte	2
 1354 0300 0F       		.byte	15
 1355 0301 19       		.byte	25
 1356 0302 12       		.byte	18
 1357 0303 C2       		.byte	-62
 1358 0304 13       		.byte	19
 1359 0305 01       		.byte	1
 1360 0306 15       		.byte	21
 1361 0307 24       		.byte	36
 1362 0308 17       		.byte	23
 1363 0309 41       		.byte	65
 1364 030a 18       		.byte	24
 1365 030b 02       		.byte	2
 1366 030c 19       		.byte	25
 1367 030d 80       		.byte	-128
 1368 030e 1A       		.byte	26
 1369 030f 02       		.byte	2
 1370 0310 1C       		.byte	28
 1371 0311 20       		.byte	32
 1372 0312 1D       		.byte	29
 1373 0313 06       		.byte	6
 1374 0314 1F       		.byte	31
 1375 0315 25       		.byte	37
 1376 0316 22       		.byte	34
 1377 0317 22       		.byte	34
 1378 0318 24       		.byte	36
 1379 0319 20       		.byte	32
 1380 031a 26       		.byte	38
 1381 031b 04       		.byte	4
 1382 031c 27       		.byte	39
 1383 031d 45       		.byte	69
 1384 031e 28       		.byte	40
 1385 031f 80       		.byte	-128
 1386 0320 29       		.byte	41
 1387 0321 84       		.byte	-124
 1388 0322 2B       		.byte	43
 1389 0323 04       		.byte	4
 1390 0324 2C       		.byte	44
 1391 0325 08       		.byte	8
ARM GAS  C:\Users\casey\AppData\Local\Temp\ccka1yeh.s 			page 45


 1392 0326 2E       		.byte	46
 1393 0327 40       		.byte	64
 1394 0328 2F       		.byte	47
 1395 0329 60       		.byte	96
 1396 032a 30       		.byte	48
 1397 032b 08       		.byte	8
 1398 032c 31       		.byte	49
 1399 032d 11       		.byte	17
 1400 032e 32       		.byte	50
 1401 032f 08       		.byte	8
 1402 0330 33       		.byte	51
 1403 0331 40       		.byte	64
 1404 0332 36       		.byte	54
 1405 0333 20       		.byte	32
 1406 0334 37       		.byte	55
 1407 0335 41       		.byte	65
 1408 0336 38       		.byte	56
 1409 0337 28       		.byte	40
 1410 0338 3A       		.byte	58
 1411 0339 40       		.byte	64
 1412 033a 3B       		.byte	59
 1413 033b 02       		.byte	2
 1414 033c 3D       		.byte	61
 1415 033d 0A       		.byte	10
 1416 033e 3E       		.byte	62
 1417 033f 10       		.byte	16
 1418 0340 48       		.byte	72
 1419 0341 06       		.byte	6
 1420 0342 49       		.byte	73
 1421 0343 20       		.byte	32
 1422 0344 4C       		.byte	76
 1423 0345 02       		.byte	2
 1424 0346 4D       		.byte	77
 1425 0347 20       		.byte	32
 1426 0348 58       		.byte	88
 1427 0349 55       		.byte	85
 1428 034a 5C       		.byte	92
 1429 034b 80       		.byte	-128
 1430 034c 5E       		.byte	94
 1431 034d 40       		.byte	64
 1432 034e 5F       		.byte	95
 1433 034f 40       		.byte	64
 1434 0350 61       		.byte	97
 1435 0351 01       		.byte	1
 1436 0352 63       		.byte	99
 1437 0353 80       		.byte	-128
 1438 0354 66       		.byte	102
 1439 0355 01       		.byte	1
 1440 0356 67       		.byte	103
 1441 0357 80       		.byte	-128
 1442 0358 83       		.byte	-125
 1443 0359 48       		.byte	72
 1444 035a 85       		.byte	-123
 1445 035b 04       		.byte	4
 1446 035c 87       		.byte	-121
 1447 035d 40       		.byte	64
 1448 035e 90       		.byte	-112
ARM GAS  C:\Users\casey\AppData\Local\Temp\ccka1yeh.s 			page 46


 1449 035f 08       		.byte	8
 1450 0360 91       		.byte	-111
 1451 0361 20       		.byte	32
 1452 0362 92       		.byte	-110
 1453 0363 14       		.byte	20
 1454 0364 93       		.byte	-109
 1455 0365 10       		.byte	16
 1456 0366 94       		.byte	-108
 1457 0367 02       		.byte	2
 1458 0368 96       		.byte	-106
 1459 0369 40       		.byte	64
 1460 036a 97       		.byte	-105
 1461 036b 8A       		.byte	-118
 1462 036c 99       		.byte	-103
 1463 036d 10       		.byte	16
 1464 036e 9D       		.byte	-99
 1465 036f 08       		.byte	8
 1466 0370 9F       		.byte	-97
 1467 0371 05       		.byte	5
 1468 0372 A0       		.byte	-96
 1469 0373 06       		.byte	6
 1470 0374 A1       		.byte	-95
 1471 0375 05       		.byte	5
 1472 0376 A2       		.byte	-94
 1473 0377 08       		.byte	8
 1474 0378 A3       		.byte	-93
 1475 0379 44       		.byte	68
 1476 037a A4       		.byte	-92
 1477 037b 90       		.byte	-112
 1478 037c A5       		.byte	-91
 1479 037d 28       		.byte	40
 1480 037e A6       		.byte	-90
 1481 037f 84       		.byte	-124
 1482 0380 A7       		.byte	-89
 1483 0381 0A       		.byte	10
 1484 0382 B0       		.byte	-80
 1485 0383 42       		.byte	66
 1486 0384 B1       		.byte	-79
 1487 0385 10       		.byte	16
 1488 0386 C0       		.byte	-64
 1489 0387 F4       		.byte	-12
 1490 0388 C2       		.byte	-62
 1491 0389 F0       		.byte	-16
 1492 038a C4       		.byte	-60
 1493 038b F1       		.byte	-15
 1494 038c CA       		.byte	-54
 1495 038d FF       		.byte	-1
 1496 038e CC       		.byte	-52
 1497 038f BF       		.byte	-65
 1498 0390 CE       		.byte	-50
 1499 0391 EF       		.byte	-17
 1500 0392 D2       		.byte	-46
 1501 0393 3C       		.byte	60
 1502 0394 D6       		.byte	-42
 1503 0395 0F       		.byte	15
 1504 0396 EE       		.byte	-18
 1505 0397 80       		.byte	-128
ARM GAS  C:\Users\casey\AppData\Local\Temp\ccka1yeh.s 			page 47


 1506 0398 00       		.byte	0
 1507 0399 01       		.byte	1
 1508 039a 04       		.byte	4
 1509 039b 01       		.byte	1
 1510 039c 07       		.byte	7
 1511 039d 08       		.byte	8
 1512 039e 08       		.byte	8
 1513 039f 01       		.byte	1
 1514 03a0 0B       		.byte	11
 1515 03a1 03       		.byte	3
 1516 03a2 0E       		.byte	14
 1517 03a3 01       		.byte	1
 1518 03a4 12       		.byte	18
 1519 03a5 01       		.byte	1
 1520 03a6 13       		.byte	19
 1521 03a7 03       		.byte	3
 1522 03a8 14       		.byte	20
 1523 03a9 02       		.byte	2
 1524 03aa 16       		.byte	22
 1525 03ab 01       		.byte	1
 1526 03ac 1A       		.byte	26
 1527 03ad 01       		.byte	1
 1528 03ae 1C       		.byte	28
 1529 03af 02       		.byte	2
 1530 03b0 1D       		.byte	29
 1531 03b1 01       		.byte	1
 1532 03b2 1E       		.byte	30
 1533 03b3 01       		.byte	1
 1534 03b4 1F       		.byte	31
 1535 03b5 02       		.byte	2
 1536 03b6 20       		.byte	32
 1537 03b7 01       		.byte	1
 1538 03b8 26       		.byte	38
 1539 03b9 01       		.byte	1
 1540 03ba 27       		.byte	39
 1541 03bb 04       		.byte	4
 1542 03bc 29       		.byte	41
 1543 03bd 02       		.byte	2
 1544 03be 2A       		.byte	42
 1545 03bf 01       		.byte	1
 1546 03c0 2B       		.byte	43
 1547 03c1 01       		.byte	1
 1548 03c2 2E       		.byte	46
 1549 03c3 01       		.byte	1
 1550 03c4 34       		.byte	52
 1551 03c5 01       		.byte	1
 1552 03c6 35       		.byte	53
 1553 03c7 08       		.byte	8
 1554 03c8 36       		.byte	54
 1555 03c9 02       		.byte	2
 1556 03ca 37       		.byte	55
 1557 03cb 07       		.byte	7
 1558 03cc 38       		.byte	56
 1559 03cd 80       		.byte	-128
 1560 03ce 3B       		.byte	59
 1561 03cf 80       		.byte	-128
 1562 03d0 3E       		.byte	62
ARM GAS  C:\Users\casey\AppData\Local\Temp\ccka1yeh.s 			page 48


 1563 03d1 10       		.byte	16
 1564 03d2 40       		.byte	64
 1565 03d3 60       		.byte	96
 1566 03d4 41       		.byte	65
 1567 03d5 05       		.byte	5
 1568 03d6 49       		.byte	73
 1569 03d7 FF       		.byte	-1
 1570 03d8 4A       		.byte	74
 1571 03d9 FF       		.byte	-1
 1572 03da 4B       		.byte	75
 1573 03db FF       		.byte	-1
 1574 03dc 4D       		.byte	77
 1575 03dd AF       		.byte	-81
 1576 03de 4E       		.byte	78
 1577 03df 07       		.byte	7
 1578 03e0 4F       		.byte	79
 1579 03e1 01       		.byte	1
 1580 03e2 50       		.byte	80
 1581 03e3 18       		.byte	24
 1582 03e4 58       		.byte	88
 1583 03e5 04       		.byte	4
 1584 03e6 59       		.byte	89
 1585 03e7 04       		.byte	4
 1586 03e8 5A       		.byte	90
 1587 03e9 04       		.byte	4
 1588 03ea 5F       		.byte	95
 1589 03eb 01       		.byte	1
 1590 03ec 60       		.byte	96
 1591 03ed 40       		.byte	64
 1592 03ee 62       		.byte	98
 1593 03ef 80       		.byte	-128
 1594 03f0 64       		.byte	100
 1595 03f1 40       		.byte	64
 1596 03f2 65       		.byte	101
 1597 03f3 40       		.byte	64
 1598 03f4 66       		.byte	102
 1599 03f5 80       		.byte	-128
 1600 03f6 68       		.byte	104
 1601 03f7 40       		.byte	64
 1602 03f8 6A       		.byte	106
 1603 03f9 80       		.byte	-128
 1604 03fa 6C       		.byte	108
 1605 03fb 40       		.byte	64
 1606 03fc 6D       		.byte	109
 1607 03fd 20       		.byte	32
 1608 03fe 6E       		.byte	110
 1609 03ff 80       		.byte	-128
 1610 0400 02       		.byte	2
 1611 0401 12       		.byte	18
 1612 0402 03       		.byte	3
 1613 0403 88       		.byte	-120
 1614 0404 04       		.byte	4
 1615 0405 28       		.byte	40
 1616 0406 07       		.byte	7
 1617 0407 41       		.byte	65
 1618 0408 0A       		.byte	10
 1619 0409 06       		.byte	6
ARM GAS  C:\Users\casey\AppData\Local\Temp\ccka1yeh.s 			page 49


 1620 040a 0B       		.byte	11
 1621 040b A0       		.byte	-96
 1622 040c 0E       		.byte	14
 1623 040d 42       		.byte	66
 1624 040e 0F       		.byte	15
 1625 040f 18       		.byte	24
 1626 0410 11       		.byte	17
 1627 0411 04       		.byte	4
 1628 0412 12       		.byte	18
 1629 0413 89       		.byte	-119
 1630 0414 15       		.byte	21
 1631 0415 29       		.byte	41
 1632 0416 16       		.byte	22
 1633 0417 22       		.byte	34
 1634 0418 18       		.byte	24
 1635 0419 04       		.byte	4
 1636 041a 19       		.byte	25
 1637 041b 01       		.byte	1
 1638 041c 1A       		.byte	26
 1639 041d 40       		.byte	64
 1640 041e 1E       		.byte	30
 1641 041f 02       		.byte	2
 1642 0420 1F       		.byte	31
 1643 0421 60       		.byte	96
 1644 0422 21       		.byte	33
 1645 0423 04       		.byte	4
 1646 0424 23       		.byte	35
 1647 0425 40       		.byte	64
 1648 0426 25       		.byte	37
 1649 0427 10       		.byte	16
 1650 0428 26       		.byte	38
 1651 0429 80       		.byte	-128
 1652 042a 29       		.byte	41
 1653 042b 80       		.byte	-128
 1654 042c 2A       		.byte	42
 1655 042d 12       		.byte	18
 1656 042e 2B       		.byte	43
 1657 042f C4       		.byte	-60
 1658 0430 2E       		.byte	46
 1659 0431 20       		.byte	32
 1660 0432 2F       		.byte	47
 1661 0433 20       		.byte	32
 1662 0434 31       		.byte	49
 1663 0435 01       		.byte	1
 1664 0436 32       		.byte	50
 1665 0437 02       		.byte	2
 1666 0438 33       		.byte	51
 1667 0439 08       		.byte	8
 1668 043a 35       		.byte	53
 1669 043b 80       		.byte	-128
 1670 043c 36       		.byte	54
 1671 043d 81       		.byte	-127
 1672 043e 38       		.byte	56
 1673 043f 28       		.byte	40
 1674 0440 39       		.byte	57
 1675 0441 05       		.byte	5
 1676 0442 3A       		.byte	58
ARM GAS  C:\Users\casey\AppData\Local\Temp\ccka1yeh.s 			page 50


 1677 0443 01       		.byte	1
 1678 0444 3B       		.byte	59
 1679 0445 2A       		.byte	42
 1680 0446 3F       		.byte	63
 1681 0447 14       		.byte	20
 1682 0448 48       		.byte	72
 1683 0449 02       		.byte	2
 1684 044a 49       		.byte	73
 1685 044b 28       		.byte	40
 1686 044c 4C       		.byte	76
 1687 044d 02       		.byte	2
 1688 044e 4D       		.byte	77
 1689 044f 20       		.byte	32
 1690 0450 50       		.byte	80
 1691 0451 80       		.byte	-128
 1692 0452 51       		.byte	81
 1693 0453 28       		.byte	40
 1694 0454 53       		.byte	83
 1695 0455 02       		.byte	2
 1696 0456 81       		.byte	-127
 1697 0457 10       		.byte	16
 1698 0458 8B       		.byte	-117
 1699 0459 44       		.byte	68
 1700 045a 90       		.byte	-112
 1701 045b 20       		.byte	32
 1702 045c 91       		.byte	-111
 1703 045d 20       		.byte	32
 1704 045e 92       		.byte	-110
 1705 045f 06       		.byte	6
 1706 0460 93       		.byte	-109
 1707 0461 1A       		.byte	26
 1708 0462 94       		.byte	-108
 1709 0463 04       		.byte	4
 1710 0464 96       		.byte	-106
 1711 0465 40       		.byte	64
 1712 0466 97       		.byte	-105
 1713 0467 80       		.byte	-128
 1714 0468 99       		.byte	-103
 1715 0469 20       		.byte	32
 1716 046a 9B       		.byte	-101
 1717 046b 41       		.byte	65
 1718 046c 9D       		.byte	-99
 1719 046d 08       		.byte	8
 1720 046e A0       		.byte	-96
 1721 046f 02       		.byte	2
 1722 0470 A2       		.byte	-94
 1723 0471 08       		.byte	8
 1724 0472 A3       		.byte	-93
 1725 0473 4C       		.byte	76
 1726 0474 A4       		.byte	-92
 1727 0475 80       		.byte	-128
 1728 0476 A5       		.byte	-91
 1729 0477 28       		.byte	40
 1730 0478 A6       		.byte	-90
 1731 0479 80       		.byte	-128
 1732 047a A7       		.byte	-89
 1733 047b 02       		.byte	2
ARM GAS  C:\Users\casey\AppData\Local\Temp\ccka1yeh.s 			page 51


 1734 047c B0       		.byte	-80
 1735 047d 55       		.byte	85
 1736 047e C0       		.byte	-64
 1737 047f FF       		.byte	-1
 1738 0480 C2       		.byte	-62
 1739 0481 FF       		.byte	-1
 1740 0482 C4       		.byte	-60
 1741 0483 FF       		.byte	-1
 1742 0484 CA       		.byte	-54
 1743 0485 6D       		.byte	109
 1744 0486 CC       		.byte	-52
 1745 0487 93       		.byte	-109
 1746 0488 CE       		.byte	-50
 1747 0489 67       		.byte	103
 1748 048a D2       		.byte	-46
 1749 048b 3C       		.byte	60
 1750 048c E4       		.byte	-28
 1751 048d 20       		.byte	32
 1752 048e 53       		.byte	83
 1753 048f 01       		.byte	1
 1754 0490 6B       		.byte	107
 1755 0491 20       		.byte	32
 1756 0492 6F       		.byte	111
 1757 0493 08       		.byte	8
 1758 0494 73       		.byte	115
 1759 0495 02       		.byte	2
 1760 0496 74       		.byte	116
 1761 0497 20       		.byte	32
 1762 0498 83       		.byte	-125
 1763 0499 02       		.byte	2
 1764 049a D4       		.byte	-44
 1765 049b 80       		.byte	-128
 1766 049c DA       		.byte	-38
 1767 049d C0       		.byte	-64
 1768 049e DC       		.byte	-36
 1769 049f 60       		.byte	96
 1770 04a0 E6       		.byte	-26
 1771 04a1 80       		.byte	-128
 1772 04a2 5C       		.byte	92
 1773 04a3 08       		.byte	8
 1774 04a4 61       		.byte	97
 1775 04a5 20       		.byte	32
 1776 04a6 80       		.byte	-128
 1777 04a7 08       		.byte	8
 1778 04a8 83       		.byte	-125
 1779 04a9 01       		.byte	1
 1780 04aa 87       		.byte	-121
 1781 04ab 80       		.byte	-128
 1782 04ac 8F       		.byte	-113
 1783 04ad 20       		.byte	32
 1784 04ae 97       		.byte	-105
 1785 04af 02       		.byte	2
 1786 04b0 9F       		.byte	-97
 1787 04b1 20       		.byte	32
 1788 04b2 A4       		.byte	-92
 1789 04b3 20       		.byte	32
 1790 04b4 AF       		.byte	-81
ARM GAS  C:\Users\casey\AppData\Local\Temp\ccka1yeh.s 			page 52


 1791 04b5 08       		.byte	8
 1792 04b6 D6       		.byte	-42
 1793 04b7 80       		.byte	-128
 1794 04b8 D8       		.byte	-40
 1795 04b9 40       		.byte	64
 1796 04ba E0       		.byte	-32
 1797 04bb 40       		.byte	64
 1798 04bc E6       		.byte	-26
 1799 04bd 20       		.byte	32
 1800 04be EE       		.byte	-18
 1801 04bf 40       		.byte	64
 1802 04c0 00       		.byte	0
 1803 04c1 80       		.byte	-128
 1804 04c2 07       		.byte	7
 1805 04c3 80       		.byte	-128
 1806 04c4 9F       		.byte	-97
 1807 04c5 80       		.byte	-128
 1808 04c6 A4       		.byte	-92
 1809 04c7 20       		.byte	32
 1810 04c8 B1       		.byte	-79
 1811 04c9 20       		.byte	32
 1812 04ca C0       		.byte	-64
 1813 04cb 60       		.byte	96
 1814 04cc 80       		.byte	-128
 1815 04cd 20       		.byte	32
 1816 04ce 88       		.byte	-120
 1817 04cf 40       		.byte	64
 1818 04d0 A0       		.byte	-96
 1819 04d1 40       		.byte	64
 1820 04d2 A4       		.byte	-92
 1821 04d3 20       		.byte	32
 1822 04d4 E2       		.byte	-30
 1823 04d5 80       		.byte	-128
 1824 04d6 9C       		.byte	-100
 1825 04d7 10       		.byte	16
 1826 04d8 AC       		.byte	-84
 1827 04d9 10       		.byte	16
 1828 04da 05       		.byte	5
 1829 04db 28       		.byte	40
 1830 04dc 08       		.byte	8
 1831 04dd 10       		.byte	16
 1832 04de 0C       		.byte	12
 1833 04df 02       		.byte	2
 1834 04e0 0D       		.byte	13
 1835 04e1 10       		.byte	16
 1836 04e2 5F       		.byte	95
 1837 04e3 02       		.byte	2
 1838 04e4 9C       		.byte	-100
 1839 04e5 10       		.byte	16
 1840 04e6 C0       		.byte	-64
 1841 04e7 05       		.byte	5
 1842 04e8 C2       		.byte	-62
 1843 04e9 07       		.byte	7
 1844 04ea D6       		.byte	-42
 1845 04eb 01       		.byte	1
 1846 04ec 8B       		.byte	-117
 1847 04ed 02       		.byte	2
ARM GAS  C:\Users\casey\AppData\Local\Temp\ccka1yeh.s 			page 53


 1848 04ee 9F       		.byte	-97
 1849 04ef 02       		.byte	2
 1850 04f0 B0       		.byte	-80
 1851 04f1 02       		.byte	2
 1852 04f2 B1       		.byte	-79
 1853 04f3 38       		.byte	56
 1854 04f4 E0       		.byte	-32
 1855 04f5 04       		.byte	4
 1856 04f6 EA       		.byte	-22
 1857 04f7 05       		.byte	5
 1858 04f8 EE       		.byte	-18
 1859 04f9 05       		.byte	5
 1860 04fa 01       		.byte	1
 1861 04fb 01       		.byte	1
 1862 04fc 10       		.byte	16
 1863 04fd 01       		.byte	1
 1864 04fe 12       		.byte	18
 1865 04ff 01       		.byte	1
 1866              		.type	cy_cfg_addr_table.4965, %object
 1867              		.size	cy_cfg_addr_table.4965, 68
 1868              	cy_cfg_addr_table.4965:
 1869 0500 01000F40 		.word	1074724865
 1870 0504 3E300F40 		.word	1074737214
 1871 0508 33310F40 		.word	1074737459
 1872 050c 42320F40 		.word	1074737730
 1873 0510 4B330F40 		.word	1074737995
 1874 0514 6C340F40 		.word	1074738284
 1875 0518 51350F40 		.word	1074738513
 1876 051c 34360F40 		.word	1074738740
 1877 0520 47370F40 		.word	1074739015
 1878 0524 0A400F40 		.word	1074741258
 1879 0528 0F410F40 		.word	1074741519
 1880 052c 06420F40 		.word	1074741766
 1881 0530 05430F40 		.word	1074742021
 1882 0534 02450F40 		.word	1074742530
 1883 0538 09460F40 		.word	1074742793
 1884 053c 07470F40 		.word	1074743047
 1885 0540 03600F40 		.word	1074749443
 1886              		.type	BS_UDB_0_0_0_CONFIG_VAL.4977, %object
 1887              		.size	BS_UDB_0_0_0_CONFIG_VAL.4977, 128
 1888              	BS_UDB_0_0_0_CONFIG_VAL.4977:
 1889 0544 00       		.byte	0
 1890 0545 04       		.byte	4
 1891 0546 06       		.byte	6
 1892 0547 01       		.byte	1
 1893 0548 00       		.byte	0
 1894 0549 08       		.byte	8
 1895 054a 06       		.byte	6
 1896 054b 01       		.byte	1
 1897 054c 00       		.byte	0
 1898 054d 10       		.byte	16
 1899 054e 02       		.byte	2
 1900 054f 01       		.byte	1
 1901 0550 02       		.byte	2
 1902 0551 00       		.byte	0
 1903 0552 00       		.byte	0
 1904 0553 00       		.byte	0
ARM GAS  C:\Users\casey\AppData\Local\Temp\ccka1yeh.s 			page 54


 1905 0554 01       		.byte	1
 1906 0555 20       		.byte	32
 1907 0556 06       		.byte	6
 1908 0557 01       		.byte	1
 1909 0558 02       		.byte	2
 1910 0559 02       		.byte	2
 1911 055a 00       		.byte	0
 1912 055b 01       		.byte	1
 1913 055c 00       		.byte	0
 1914 055d 00       		.byte	0
 1915 055e 02       		.byte	2
 1916 055f 00       		.byte	0
 1917 0560 01       		.byte	1
 1918 0561 00       		.byte	0
 1919 0562 02       		.byte	2
 1920 0563 00       		.byte	0
 1921 0564 00       		.byte	0
 1922 0565 80       		.byte	-128
 1923 0566 02       		.byte	2
 1924 0567 01       		.byte	1
 1925 0568 02       		.byte	2
 1926 0569 00       		.byte	0
 1927 056a 00       		.byte	0
 1928 056b 00       		.byte	0
 1929 056c 00       		.byte	0
 1930 056d 40       		.byte	64
 1931 056e 07       		.byte	7
 1932 056f 01       		.byte	1
 1933 0570 02       		.byte	2
 1934 0571 01       		.byte	1
 1935 0572 00       		.byte	0
 1936 0573 FE       		.byte	-2
 1937 0574 04       		.byte	4
 1938 0575 00       		.byte	0
 1939 0576 00       		.byte	0
 1940 0577 FF       		.byte	-1
 1941 0578 03       		.byte	3
 1942 0579 00       		.byte	0
 1943 057a 00       		.byte	0
 1944 057b 00       		.byte	0
 1945 057c 00       		.byte	0
 1946 057d 02       		.byte	2
 1947 057e 02       		.byte	2
 1948 057f 00       		.byte	0
 1949 0580 00       		.byte	0
 1950 0581 00       		.byte	0
 1951 0582 10       		.byte	16
 1952 0583 05       		.byte	5
 1953 0584 60       		.byte	96
 1954 0585 05       		.byte	5
 1955 0586 00       		.byte	0
 1956 0587 00       		.byte	0
 1957 0588 00       		.byte	0
 1958 0589 04       		.byte	4
 1959 058a C3       		.byte	-61
 1960 058b 2E       		.byte	46
 1961 058c 3D       		.byte	61
ARM GAS  C:\Users\casey\AppData\Local\Temp\ccka1yeh.s 			page 55


 1962 058d FF       		.byte	-1
 1963 058e FF       		.byte	-1
 1964 058f FF       		.byte	-1
 1965 0590 00       		.byte	0
 1966 0591 AF       		.byte	-81
 1967 0592 07       		.byte	7
 1968 0593 01       		.byte	1
 1969 0594 18       		.byte	24
 1970 0595 00       		.byte	0
 1971 0596 00       		.byte	0
 1972 0597 00       		.byte	0
 1973 0598 00       		.byte	0
 1974 0599 00       		.byte	0
 1975 059a 00       		.byte	0
 1976 059b 00       		.byte	0
 1977 059c 04       		.byte	4
 1978 059d 04       		.byte	4
 1979 059e 04       		.byte	4
 1980 059f 00       		.byte	0
 1981 05a0 00       		.byte	0
 1982 05a1 00       		.byte	0
 1983 05a2 00       		.byte	0
 1984 05a3 01       		.byte	1
 1985 05a4 40       		.byte	64
 1986 05a5 00       		.byte	0
 1987 05a6 80       		.byte	-128
 1988 05a7 00       		.byte	0
 1989 05a8 40       		.byte	64
 1990 05a9 40       		.byte	64
 1991 05aa 80       		.byte	-128
 1992 05ab 00       		.byte	0
 1993 05ac 40       		.byte	64
 1994 05ad 00       		.byte	0
 1995 05ae 80       		.byte	-128
 1996 05af 00       		.byte	0
 1997 05b0 40       		.byte	64
 1998 05b1 20       		.byte	32
 1999 05b2 80       		.byte	-128
 2000 05b3 00       		.byte	0
 2001 05b4 00       		.byte	0
 2002 05b5 00       		.byte	0
 2003 05b6 00       		.byte	0
 2004 05b7 00       		.byte	0
 2005 05b8 00       		.byte	0
 2006 05b9 00       		.byte	0
 2007 05ba 00       		.byte	0
 2008 05bb 00       		.byte	0
 2009 05bc 00       		.byte	0
 2010 05bd 00       		.byte	0
 2011 05be 00       		.byte	0
 2012 05bf 00       		.byte	0
 2013 05c0 00       		.byte	0
 2014 05c1 00       		.byte	0
 2015 05c2 00       		.byte	0
 2016 05c3 00       		.byte	0
 2017              		.text
 2018              	.Letext0:
ARM GAS  C:\Users\casey\AppData\Local\Temp\ccka1yeh.s 			page 56


 2019              		.file 2 "c:\\program files (x86)\\cypress\\psoc creator\\4.4\\psoc creator\\import\\gnu\\arm\\5.4.
 2020              		.file 3 "Generated_Source\\PSoC4\\cytypes.h"
 2021              		.file 4 "Generated_Source\\PSoC4\\CyLib.h"