ARM GAS  C:\Users\casey\AppData\Local\Temp\ccxTeREU.s 			page 1


   1              		.syntax unified
   2              		.cpu cortex-m0
   3              		.fpu softvfp
   4              		.eabi_attribute 20, 1
   5              		.eabi_attribute 21, 1
   6              		.eabi_attribute 23, 3
   7              		.eabi_attribute 24, 1
   8              		.eabi_attribute 25, 1
   9              		.eabi_attribute 26, 1
  10              		.eabi_attribute 30, 1
  11              		.eabi_attribute 34, 0
  12              		.eabi_attribute 18, 4
  13              		.thumb
  14              		.syntax unified
  15              		.file	"main.c"
  16              		.text
  17              	.Ltext0:
  18              		.cfi_sections	.debug_frame
  19              		.section	.text.getCurrentPosition,"ax",%progbits
  20              		.align	2
  21              		.global	getCurrentPosition
  22              		.code	16
  23              		.thumb_func
  24              		.type	getCurrentPosition, %function
  25              	getCurrentPosition:
  26              	.LFB34:
  27              		.file 1 "main.c"
   1:main.c        **** /* ========================================
   2:main.c        ****  *
   3:main.c        ****  * Copyright YOUR COMPANY, THE YEAR
   4:main.c        ****  * All Rights Reserved
   5:main.c        ****  * UNPUBLISHED, LICENSED SOFTWARE.
   6:main.c        ****  *
   7:main.c        ****  * CONFIDENTIAL AND PROPRIETARY INFORMATION
   8:main.c        ****  * WHICH IS THE PROPERTY OF your company.
   9:main.c        ****  *
  10:main.c        ****  * ========================================
  11:main.c        **** */
  12:main.c        **** #include "project.h"
  13:main.c        **** #include <stdlib.h>
  14:main.c        **** #include "main.h"
  15:main.c        **** 
  16:main.c        **** const int CLOCK_FREQUENCY = 1000000;
  17:main.c        **** 
  18:main.c        **** double accel;
  19:main.c        **** double vel;
  20:main.c        **** double stepSize;
  21:main.c        **** int E_max;
  22:main.c        **** 
  23:main.c        **** int targetPosition = 0;
  24:main.c        **** int dbg_step = 1;
  25:main.c        **** int E = 0;
  26:main.c        **** 
  27:main.c        **** // position in steps
  28:main.c        **** int getCurrentPosition()
  29:main.c        **** {
  28              		.loc 1 29 0
ARM GAS  C:\Users\casey\AppData\Local\Temp\ccxTeREU.s 			page 2


  29              		.cfi_startproc
  30              		@ args = 0, pretend = 0, frame = 0
  31              		@ frame_needed = 0, uses_anonymous_args = 0
  32 0000 10B5     		push	{r4, lr}
  33              		.cfi_def_cfa_offset 8
  34              		.cfi_offset 4, -8
  35              		.cfi_offset 14, -4
  30:main.c        ****     return Step_Counter_ReadCounter();
  36              		.loc 1 30 0
  37 0002 FFF7FEFF 		bl	Step_Counter_ReadCounter
  38              	.LVL0:
  31:main.c        **** }
  39              		.loc 1 31 0
  40              		@ sp needed
  41 0006 10BD     		pop	{r4, pc}
  42              		.cfi_endproc
  43              	.LFE34:
  44              		.size	getCurrentPosition, .-getCurrentPosition
  45              		.section	.text.stop,"ax",%progbits
  46              		.align	2
  47              		.global	stop
  48              		.code	16
  49              		.thumb_func
  50              		.type	stop, %function
  51              	stop:
  52              	.LFB35:
  32:main.c        **** 
  33:main.c        **** void stop() {
  53              		.loc 1 33 0
  54              		.cfi_startproc
  55              		@ args = 0, pretend = 0, frame = 0
  56              		@ frame_needed = 0, uses_anonymous_args = 0
  57 0000 10B5     		push	{r4, lr}
  58              		.cfi_def_cfa_offset 8
  59              		.cfi_offset 4, -8
  60              		.cfi_offset 14, -4
  34:main.c        ****     Enable_Write(0);
  61              		.loc 1 34 0
  62 0002 0020     		movs	r0, #0
  63 0004 FFF7FEFF 		bl	Enable_Write
  64              	.LVL1:
  35:main.c        ****     targetPosition = getCurrentPosition();
  65              		.loc 1 35 0
  66 0008 FFF7FEFF 		bl	getCurrentPosition
  67              	.LVL2:
  68 000c 024B     		ldr	r3, .L3
  69 000e 1860     		str	r0, [r3]
  36:main.c        ****     E = 0;
  70              		.loc 1 36 0
  71 0010 0022     		movs	r2, #0
  72 0012 5A60     		str	r2, [r3, #4]
  37:main.c        **** }
  73              		.loc 1 37 0
  74              		@ sp needed
  75 0014 10BD     		pop	{r4, pc}
  76              	.L4:
  77 0016 C046     		.align	2
ARM GAS  C:\Users\casey\AppData\Local\Temp\ccxTeREU.s 			page 3


  78              	.L3:
  79 0018 00000000 		.word	.LANCHOR0
  80              		.cfi_endproc
  81              	.LFE35:
  82              		.size	stop, .-stop
  83              		.section	.text.On_Lim_1,"ax",%progbits
  84              		.align	2
  85              		.global	On_Lim_1
  86              		.code	16
  87              		.thumb_func
  88              		.type	On_Lim_1, %function
  89              	On_Lim_1:
  90              	.LFB41:
  38:main.c        **** 
  39:main.c        **** // speed in steps/sec
  40:main.c        **** void setSpeed(double speed) {
  41:main.c        ****     Step_Timer_WritePeriod(CLOCK_FREQUENCY/speed);
  42:main.c        **** }
  43:main.c        **** 
  44:main.c        **** void AccelToTarget() {
  45:main.c        ****     int pos = getCurrentPosition();
  46:main.c        ****         
  47:main.c        ****     if (E > targetPosition - pos) {
  48:main.c        ****         E -= E > -E_max;
  49:main.c        ****     }
  50:main.c        ****     if (E < targetPosition - pos) {
  51:main.c        ****         E += E < E_max;
  52:main.c        ****     }
  53:main.c        ****     
  54:main.c        ****     Direction_Write(E >= 0);
  55:main.c        ****     
  56:main.c        ****     if (E != 0) {
  57:main.c        ****         double new_freq = sqrt(abs(E)*accel);
  58:main.c        ****         setSpeed(new_freq);
  59:main.c        ****     }
  60:main.c        ****     
  61:main.c        ****     if (pos == targetPosition) {
  62:main.c        ****         if (E == 0) {
  63:main.c        ****             Enable_Write(0);
  64:main.c        ****             Println("Arrived at Target™");
  65:main.c        ****         }
  66:main.c        ****     }
  67:main.c        **** }
  68:main.c        ****     
  69:main.c        **** void StartMove(int target)
  70:main.c        **** {
  71:main.c        ****     targetPosition = target;
  72:main.c        ****     PrintInt(targetPosition);
  73:main.c        ****     Println("");
  74:main.c        ****     Enable_Write(1);
  75:main.c        ****     AccelToTarget();
  76:main.c        **** }
  77:main.c        **** 
  78:main.c        **** void GotoAngle(double angle) {
  79:main.c        ****     StartMove(round(angle / stepSize));
  80:main.c        **** }
  81:main.c        **** 
ARM GAS  C:\Users\casey\AppData\Local\Temp\ccxTeREU.s 			page 4


  82:main.c        **** void Step(int steps) {
  83:main.c        ****     StartMove(targetPosition + steps);
  84:main.c        **** }
  85:main.c        **** 
  86:main.c        **** CY_ISR(On_Lim_1) {
  91              		.loc 1 86 0
  92              		.cfi_startproc
  93              		@ args = 0, pretend = 0, frame = 0
  94              		@ frame_needed = 0, uses_anonymous_args = 0
  95 0000 10B5     		push	{r4, lr}
  96              		.cfi_def_cfa_offset 8
  97              		.cfi_offset 4, -8
  98              		.cfi_offset 14, -4
  87:main.c        ****     Println("Hit limit switch 1");
  99              		.loc 1 87 0
 100 0002 0548     		ldr	r0, .L6
 101 0004 FFF7FEFF 		bl	DBG_UART_UartPutString
 102              	.LVL3:
 103 0008 0448     		ldr	r0, .L6+4
 104 000a FFF7FEFF 		bl	DBG_UART_UartPutString
 105              	.LVL4:
  88:main.c        ****     stop();
 106              		.loc 1 88 0
 107 000e FFF7FEFF 		bl	stop
 108              	.LVL5:
  89:main.c        ****     
  90:main.c        ****     isr_lim_1_ClearPending();
 109              		.loc 1 90 0
 110 0012 FFF7FEFF 		bl	isr_lim_1_ClearPending
 111              	.LVL6:
  91:main.c        **** }
 112              		.loc 1 91 0
 113              		@ sp needed
 114 0016 10BD     		pop	{r4, pc}
 115              	.L7:
 116              		.align	2
 117              	.L6:
 118 0018 00000000 		.word	.LC1
 119 001c 14000000 		.word	.LC3
 120              		.cfi_endproc
 121              	.LFE41:
 122              		.size	On_Lim_1, .-On_Lim_1
 123              		.section	.text.On_Lim_2,"ax",%progbits
 124              		.align	2
 125              		.global	On_Lim_2
 126              		.code	16
 127              		.thumb_func
 128              		.type	On_Lim_2, %function
 129              	On_Lim_2:
 130              	.LFB42:
  92:main.c        **** 
  93:main.c        **** CY_ISR(On_Lim_2) {
 131              		.loc 1 93 0
 132              		.cfi_startproc
 133              		@ args = 0, pretend = 0, frame = 0
 134              		@ frame_needed = 0, uses_anonymous_args = 0
 135 0000 10B5     		push	{r4, lr}
ARM GAS  C:\Users\casey\AppData\Local\Temp\ccxTeREU.s 			page 5


 136              		.cfi_def_cfa_offset 8
 137              		.cfi_offset 4, -8
 138              		.cfi_offset 14, -4
  94:main.c        ****     Println("Hit limit switch 2");
 139              		.loc 1 94 0
 140 0002 0548     		ldr	r0, .L9
 141 0004 FFF7FEFF 		bl	DBG_UART_UartPutString
 142              	.LVL7:
 143 0008 0448     		ldr	r0, .L9+4
 144 000a FFF7FEFF 		bl	DBG_UART_UartPutString
 145              	.LVL8:
  95:main.c        ****     stop();
 146              		.loc 1 95 0
 147 000e FFF7FEFF 		bl	stop
 148              	.LVL9:
  96:main.c        ****     
  97:main.c        ****     isr_lim_2_ClearPending();
 149              		.loc 1 97 0
 150 0012 FFF7FEFF 		bl	isr_lim_2_ClearPending
 151              	.LVL10:
  98:main.c        **** }
 152              		.loc 1 98 0
 153              		@ sp needed
 154 0016 10BD     		pop	{r4, pc}
 155              	.L10:
 156              		.align	2
 157              	.L9:
 158 0018 18000000 		.word	.LC5
 159 001c 14000000 		.word	.LC3
 160              		.cfi_endproc
 161              	.LFE42:
 162              		.size	On_Lim_2, .-On_Lim_2
 163              		.section	.text.On_Fault,"ax",%progbits
 164              		.align	2
 165              		.global	On_Fault
 166              		.code	16
 167              		.thumb_func
 168              		.type	On_Fault, %function
 169              	On_Fault:
 170              	.LFB43:
  99:main.c        **** 
 100:main.c        **** CY_ISR(On_Fault) {
 171              		.loc 1 100 0
 172              		.cfi_startproc
 173              		@ args = 0, pretend = 0, frame = 0
 174              		@ frame_needed = 0, uses_anonymous_args = 0
 175 0000 10B5     		push	{r4, lr}
 176              		.cfi_def_cfa_offset 8
 177              		.cfi_offset 4, -8
 178              		.cfi_offset 14, -4
 101:main.c        ****     Println("Driver fault");
 179              		.loc 1 101 0
 180 0002 0748     		ldr	r0, .L12
 181 0004 FFF7FEFF 		bl	DBG_UART_UartPutString
 182              	.LVL11:
 183 0008 0648     		ldr	r0, .L12+4
 184 000a FFF7FEFF 		bl	DBG_UART_UartPutString
ARM GAS  C:\Users\casey\AppData\Local\Temp\ccxTeREU.s 			page 6


 185              	.LVL12:
 102:main.c        ****     Step_Counter_WriteCounter(0);
 186              		.loc 1 102 0
 187 000e 0020     		movs	r0, #0
 188 0010 FFF7FEFF 		bl	Step_Counter_WriteCounter
 189              	.LVL13:
 103:main.c        ****     stop();
 190              		.loc 1 103 0
 191 0014 FFF7FEFF 		bl	stop
 192              	.LVL14:
 104:main.c        ****     
 105:main.c        ****     isr_fault_ClearPending();
 193              		.loc 1 105 0
 194 0018 FFF7FEFF 		bl	isr_fault_ClearPending
 195              	.LVL15:
 106:main.c        **** }
 196              		.loc 1 106 0
 197              		@ sp needed
 198 001c 10BD     		pop	{r4, pc}
 199              	.L13:
 200 001e C046     		.align	2
 201              	.L12:
 202 0020 2C000000 		.word	.LC8
 203 0024 14000000 		.word	.LC3
 204              		.cfi_endproc
 205              	.LFE43:
 206              		.size	On_Fault, .-On_Fault
 207              		.global	__aeabi_ddiv
 208              		.global	__aeabi_d2uiz
 209              		.section	.text.setSpeed,"ax",%progbits
 210              		.align	2
 211              		.global	setSpeed
 212              		.code	16
 213              		.thumb_func
 214              		.type	setSpeed, %function
 215              	setSpeed:
 216              	.LFB36:
  40:main.c        ****     Step_Timer_WritePeriod(CLOCK_FREQUENCY/speed);
 217              		.loc 1 40 0
 218              		.cfi_startproc
 219              		@ args = 0, pretend = 0, frame = 0
 220              		@ frame_needed = 0, uses_anonymous_args = 0
 221              	.LVL16:
 222 0000 10B5     		push	{r4, lr}
 223              		.cfi_def_cfa_offset 8
 224              		.cfi_offset 4, -8
 225              		.cfi_offset 14, -4
 226 0002 0200     		movs	r2, r0
 227 0004 0B00     		movs	r3, r1
  41:main.c        **** }
 228              		.loc 1 41 0
 229 0006 0020     		movs	r0, #0
 230              	.LVL17:
 231 0008 0349     		ldr	r1, .L15
 232 000a FFF7FEFF 		bl	__aeabi_ddiv
 233              	.LVL18:
 234 000e FFF7FEFF 		bl	__aeabi_d2uiz
ARM GAS  C:\Users\casey\AppData\Local\Temp\ccxTeREU.s 			page 7


 235              	.LVL19:
 236 0012 FFF7FEFF 		bl	Step_Timer_WritePeriod
 237              	.LVL20:
  42:main.c        **** 
 238              		.loc 1 42 0
 239              		@ sp needed
 240 0016 10BD     		pop	{r4, pc}
 241              	.L16:
 242              		.align	2
 243              	.L15:
 244 0018 80842E41 		.word	1093567616
 245              		.cfi_endproc
 246              	.LFE36:
 247              		.size	setSpeed, .-setSpeed
 248              		.global	__aeabi_i2d
 249              		.global	__aeabi_dmul
 250              		.section	.text.AccelToTarget,"ax",%progbits
 251              		.align	2
 252              		.global	AccelToTarget
 253              		.code	16
 254              		.thumb_func
 255              		.type	AccelToTarget, %function
 256              	AccelToTarget:
 257              	.LFB37:
  44:main.c        ****     int pos = getCurrentPosition();
 258              		.loc 1 44 0
 259              		.cfi_startproc
 260              		@ args = 0, pretend = 0, frame = 0
 261              		@ frame_needed = 0, uses_anonymous_args = 0
 262 0000 70B5     		push	{r4, r5, r6, lr}
 263              		.cfi_def_cfa_offset 16
 264              		.cfi_offset 4, -16
 265              		.cfi_offset 5, -12
 266              		.cfi_offset 6, -8
 267              		.cfi_offset 14, -4
  45:main.c        ****         
 268              		.loc 1 45 0
 269 0002 FFF7FEFF 		bl	getCurrentPosition
 270              	.LVL21:
 271 0006 0400     		movs	r4, r0
 272              	.LVL22:
  47:main.c        ****         E -= E > -E_max;
 273              		.loc 1 47 0
 274 0008 224A     		ldr	r2, .L24
 275 000a 1368     		ldr	r3, [r2]
 276 000c 1B1A     		subs	r3, r3, r0
 277 000e 5268     		ldr	r2, [r2, #4]
 278 0010 9342     		cmp	r3, r2
 279 0012 09DA     		bge	.L18
  48:main.c        ****     }
 280              		.loc 1 48 0
 281 0014 2049     		ldr	r1, .L24+4
 282 0016 0968     		ldr	r1, [r1]
 283 0018 4942     		rsbs	r1, r1, #0
 284 001a 0120     		movs	r0, #1
 285              	.LVL23:
 286 001c 8A42     		cmp	r2, r1
ARM GAS  C:\Users\casey\AppData\Local\Temp\ccxTeREU.s 			page 8


 287 001e 00DC     		bgt	.L19
 288 0020 0020     		movs	r0, #0
 289              	.L19:
 290 0022 121A     		subs	r2, r2, r0
 291 0024 1B49     		ldr	r1, .L24
 292 0026 4A60     		str	r2, [r1, #4]
 293              	.L18:
  50:main.c        ****         E += E < E_max;
 294              		.loc 1 50 0
 295 0028 1A4A     		ldr	r2, .L24
 296 002a 5268     		ldr	r2, [r2, #4]
 297 002c 9342     		cmp	r3, r2
 298 002e 08DD     		ble	.L20
  51:main.c        ****     }
 299              		.loc 1 51 0
 300 0030 0123     		movs	r3, #1
 301 0032 1949     		ldr	r1, .L24+4
 302 0034 0968     		ldr	r1, [r1]
 303 0036 8A42     		cmp	r2, r1
 304 0038 00DB     		blt	.L21
 305 003a 0023     		movs	r3, #0
 306              	.L21:
 307 003c D218     		adds	r2, r2, r3
 308 003e 154B     		ldr	r3, .L24
 309 0040 5A60     		str	r2, [r3, #4]
 310              	.L20:
  54:main.c        ****     
 311              		.loc 1 54 0
 312 0042 144D     		ldr	r5, .L24
 313 0044 6B68     		ldr	r3, [r5, #4]
 314 0046 D843     		mvns	r0, r3
 315 0048 C00F     		lsrs	r0, r0, #31
 316 004a FFF7FEFF 		bl	Direction_Write
 317              	.LVL24:
  56:main.c        ****         double new_freq = sqrt(abs(E)*accel);
 318              		.loc 1 56 0
 319 004e 6868     		ldr	r0, [r5, #4]
 320 0050 0028     		cmp	r0, #0
 321 0052 0DD0     		beq	.L22
 322              	.LBB2:
  57:main.c        ****         setSpeed(new_freq);
 323              		.loc 1 57 0
 324 0054 C317     		asrs	r3, r0, #31
 325 0056 C018     		adds	r0, r0, r3
 326 0058 5840     		eors	r0, r3
 327 005a FFF7FEFF 		bl	__aeabi_i2d
 328              	.LVL25:
 329 005e 0F4B     		ldr	r3, .L24+8
 330 0060 1A68     		ldr	r2, [r3]
 331 0062 5B68     		ldr	r3, [r3, #4]
 332 0064 FFF7FEFF 		bl	__aeabi_dmul
 333              	.LVL26:
 334 0068 FFF7FEFF 		bl	sqrt
 335              	.LVL27:
  58:main.c        ****     }
 336              		.loc 1 58 0
 337 006c FFF7FEFF 		bl	setSpeed
ARM GAS  C:\Users\casey\AppData\Local\Temp\ccxTeREU.s 			page 9


 338              	.LVL28:
 339              	.L22:
 340              	.LBE2:
  61:main.c        ****         if (E == 0) {
 341              		.loc 1 61 0
 342 0070 084B     		ldr	r3, .L24
 343 0072 1B68     		ldr	r3, [r3]
 344 0074 9C42     		cmp	r4, r3
 345 0076 0CD1     		bne	.L17
  62:main.c        ****             Enable_Write(0);
 346              		.loc 1 62 0
 347 0078 064B     		ldr	r3, .L24
 348 007a 5B68     		ldr	r3, [r3, #4]
 349 007c 002B     		cmp	r3, #0
 350 007e 08D1     		bne	.L17
  63:main.c        ****             Println("Arrived at Target™");
 351              		.loc 1 63 0
 352 0080 0020     		movs	r0, #0
 353 0082 FFF7FEFF 		bl	Enable_Write
 354              	.LVL29:
  64:main.c        ****         }
 355              		.loc 1 64 0
 356 0086 0648     		ldr	r0, .L24+12
 357 0088 FFF7FEFF 		bl	DBG_UART_UartPutString
 358              	.LVL30:
 359 008c 0548     		ldr	r0, .L24+16
 360 008e FFF7FEFF 		bl	DBG_UART_UartPutString
 361              	.LVL31:
 362              	.L17:
  67:main.c        ****     
 363              		.loc 1 67 0
 364              		@ sp needed
 365              	.LVL32:
 366 0092 70BD     		pop	{r4, r5, r6, pc}
 367              	.L25:
 368              		.align	2
 369              	.L24:
 370 0094 00000000 		.word	.LANCHOR0
 371 0098 00000000 		.word	E_max
 372 009c 00000000 		.word	accel
 373 00a0 3C000000 		.word	.LC14
 374 00a4 14000000 		.word	.LC3
 375              		.cfi_endproc
 376              	.LFE37:
 377              		.size	AccelToTarget, .-AccelToTarget
 378              		.section	.text.On_Step,"ax",%progbits
 379              		.align	2
 380              		.global	On_Step
 381              		.code	16
 382              		.thumb_func
 383              		.type	On_Step, %function
 384              	On_Step:
 385              	.LFB44:
 107:main.c        **** 
 108:main.c        **** CY_ISR(On_Step) {
 386              		.loc 1 108 0
 387              		.cfi_startproc
ARM GAS  C:\Users\casey\AppData\Local\Temp\ccxTeREU.s 			page 10


 388              		@ args = 0, pretend = 0, frame = 0
 389              		@ frame_needed = 0, uses_anonymous_args = 0
 390 0000 10B5     		push	{r4, lr}
 391              		.cfi_def_cfa_offset 8
 392              		.cfi_offset 4, -8
 393              		.cfi_offset 14, -4
 109:main.c        ****     AccelToTarget();
 394              		.loc 1 109 0
 395 0002 FFF7FEFF 		bl	AccelToTarget
 396              	.LVL33:
 110:main.c        ****     isr_step_ClearPending();
 397              		.loc 1 110 0
 398 0006 FFF7FEFF 		bl	isr_step_ClearPending
 399              	.LVL34:
 111:main.c        **** }
 400              		.loc 1 111 0
 401              		@ sp needed
 402 000a 10BD     		pop	{r4, pc}
 403              		.cfi_endproc
 404              	.LFE44:
 405              		.size	On_Step, .-On_Step
 406              		.section	.text.StartMove,"ax",%progbits
 407              		.align	2
 408              		.global	StartMove
 409              		.code	16
 410              		.thumb_func
 411              		.type	StartMove, %function
 412              	StartMove:
 413              	.LFB38:
  70:main.c        ****     targetPosition = target;
 414              		.loc 1 70 0
 415              		.cfi_startproc
 416              		@ args = 0, pretend = 0, frame = 0
 417              		@ frame_needed = 0, uses_anonymous_args = 0
 418              	.LVL35:
 419 0000 10B5     		push	{r4, lr}
 420              		.cfi_def_cfa_offset 8
 421              		.cfi_offset 4, -8
 422              		.cfi_offset 14, -4
  71:main.c        ****     PrintInt(targetPosition);
 423              		.loc 1 71 0
 424 0002 0A4B     		ldr	r3, .L28
 425 0004 1860     		str	r0, [r3]
  72:main.c        ****     Println("");
 426              		.loc 1 72 0
 427 0006 0A22     		movs	r2, #10
 428 0008 0949     		ldr	r1, .L28+4
 429 000a FFF7FEFF 		bl	itoa
 430              	.LVL36:
 431 000e FFF7FEFF 		bl	DBG_UART_UartPutString
 432              	.LVL37:
  73:main.c        ****     Enable_Write(1);
 433              		.loc 1 73 0
 434 0012 0848     		ldr	r0, .L28+8
 435 0014 FFF7FEFF 		bl	DBG_UART_UartPutString
 436              	.LVL38:
 437 0018 0748     		ldr	r0, .L28+12
ARM GAS  C:\Users\casey\AppData\Local\Temp\ccxTeREU.s 			page 11


 438 001a FFF7FEFF 		bl	DBG_UART_UartPutString
 439              	.LVL39:
  74:main.c        ****     AccelToTarget();
 440              		.loc 1 74 0
 441 001e 0120     		movs	r0, #1
 442 0020 FFF7FEFF 		bl	Enable_Write
 443              	.LVL40:
  75:main.c        **** }
 444              		.loc 1 75 0
 445 0024 FFF7FEFF 		bl	AccelToTarget
 446              	.LVL41:
  76:main.c        **** 
 447              		.loc 1 76 0
 448              		@ sp needed
 449 0028 10BD     		pop	{r4, pc}
 450              	.L29:
 451 002a C046     		.align	2
 452              	.L28:
 453 002c 00000000 		.word	.LANCHOR0
 454 0030 00000000 		.word	debugOutput
 455 0034 54000000 		.word	.LC19
 456 0038 14000000 		.word	.LC3
 457              		.cfi_endproc
 458              	.LFE38:
 459              		.size	StartMove, .-StartMove
 460              		.global	__aeabi_d2iz
 461              		.section	.text.GotoAngle,"ax",%progbits
 462              		.align	2
 463              		.global	GotoAngle
 464              		.code	16
 465              		.thumb_func
 466              		.type	GotoAngle, %function
 467              	GotoAngle:
 468              	.LFB39:
  78:main.c        ****     StartMove(round(angle / stepSize));
 469              		.loc 1 78 0
 470              		.cfi_startproc
 471              		@ args = 0, pretend = 0, frame = 0
 472              		@ frame_needed = 0, uses_anonymous_args = 0
 473              	.LVL42:
 474 0000 10B5     		push	{r4, lr}
 475              		.cfi_def_cfa_offset 8
 476              		.cfi_offset 4, -8
 477              		.cfi_offset 14, -4
  79:main.c        **** }
 478              		.loc 1 79 0
 479 0002 064B     		ldr	r3, .L31
 480 0004 1A68     		ldr	r2, [r3]
 481 0006 5B68     		ldr	r3, [r3, #4]
 482 0008 FFF7FEFF 		bl	__aeabi_ddiv
 483              	.LVL43:
 484 000c FFF7FEFF 		bl	round
 485              	.LVL44:
 486 0010 FFF7FEFF 		bl	__aeabi_d2iz
 487              	.LVL45:
 488 0014 FFF7FEFF 		bl	StartMove
 489              	.LVL46:
ARM GAS  C:\Users\casey\AppData\Local\Temp\ccxTeREU.s 			page 12


  80:main.c        **** 
 490              		.loc 1 80 0
 491              		@ sp needed
 492 0018 10BD     		pop	{r4, pc}
 493              	.L32:
 494 001a C046     		.align	2
 495              	.L31:
 496 001c 00000000 		.word	stepSize
 497              		.cfi_endproc
 498              	.LFE39:
 499              		.size	GotoAngle, .-GotoAngle
 500              		.section	.text.Step,"ax",%progbits
 501              		.align	2
 502              		.global	Step
 503              		.code	16
 504              		.thumb_func
 505              		.type	Step, %function
 506              	Step:
 507              	.LFB40:
  82:main.c        ****     StartMove(targetPosition + steps);
 508              		.loc 1 82 0
 509              		.cfi_startproc
 510              		@ args = 0, pretend = 0, frame = 0
 511              		@ frame_needed = 0, uses_anonymous_args = 0
 512              	.LVL47:
 513 0000 10B5     		push	{r4, lr}
 514              		.cfi_def_cfa_offset 8
 515              		.cfi_offset 4, -8
 516              		.cfi_offset 14, -4
  83:main.c        **** }
 517              		.loc 1 83 0
 518 0002 034B     		ldr	r3, .L34
 519 0004 1B68     		ldr	r3, [r3]
 520 0006 C018     		adds	r0, r0, r3
 521              	.LVL48:
 522 0008 FFF7FEFF 		bl	StartMove
 523              	.LVL49:
  84:main.c        **** 
 524              		.loc 1 84 0
 525              		@ sp needed
 526 000c 10BD     		pop	{r4, pc}
 527              	.L35:
 528 000e C046     		.align	2
 529              	.L34:
 530 0010 00000000 		.word	.LANCHOR0
 531              		.cfi_endproc
 532              	.LFE40:
 533              		.size	Step, .-Step
 534              		.section	.text.main,"ax",%progbits
 535              		.align	2
 536              		.global	main
 537              		.code	16
 538              		.thumb_func
 539              		.type	main, %function
 540              	main:
 541              	.LFB45:
 112:main.c        **** 
ARM GAS  C:\Users\casey\AppData\Local\Temp\ccxTeREU.s 			page 13


 113:main.c        **** 
 114:main.c        **** int main(void)
 115:main.c        **** {
 542              		.loc 1 115 0
 543              		.cfi_startproc
 544              		@ args = 0, pretend = 0, frame = 0
 545              		@ frame_needed = 0, uses_anonymous_args = 0
 546 0000 70B5     		push	{r4, r5, r6, lr}
 547              		.cfi_def_cfa_offset 16
 548              		.cfi_offset 4, -16
 549              		.cfi_offset 5, -12
 550              		.cfi_offset 6, -8
 551              		.cfi_offset 14, -4
 116:main.c        ****     CyGlobalIntEnable; /* Enable global interrupts. */
 552              		.loc 1 116 0
 553              		.syntax divided
 554              	@ 116 "main.c" 1
 555 0002 62B6     		CPSIE   i
 556              	@ 0 "" 2
 117:main.c        ****     
 118:main.c        ****     isr_lim_1_StartEx(On_Lim_1);
 557              		.loc 1 118 0
 558              		.thumb
 559              		.syntax unified
 560 0004 5C48     		ldr	r0, .L45
 561 0006 FFF7FEFF 		bl	isr_lim_1_StartEx
 562              	.LVL50:
 119:main.c        ****     isr_lim_2_StartEx(On_Lim_2);
 563              		.loc 1 119 0
 564 000a 5C48     		ldr	r0, .L45+4
 565 000c FFF7FEFF 		bl	isr_lim_2_StartEx
 566              	.LVL51:
 120:main.c        ****     isr_fault_StartEx(On_Fault);
 567              		.loc 1 120 0
 568 0010 5B48     		ldr	r0, .L45+8
 569 0012 FFF7FEFF 		bl	isr_fault_StartEx
 570              	.LVL52:
 121:main.c        ****     isr_step_StartEx(On_Step);
 571              		.loc 1 121 0
 572 0016 5B48     		ldr	r0, .L45+12
 573 0018 FFF7FEFF 		bl	isr_step_StartEx
 574              	.LVL53:
 122:main.c        ****     Step_Counter_Start();
 575              		.loc 1 122 0
 576 001c FFF7FEFF 		bl	Step_Counter_Start
 577              	.LVL54:
 123:main.c        ****     Step_Timer_Start();
 578              		.loc 1 123 0
 579 0020 FFF7FEFF 		bl	Step_Timer_Start
 580              	.LVL55:
 124:main.c        ****     
 125:main.c        ****     DBG_UART_Start();
 581              		.loc 1 125 0
 582 0024 FFF7FEFF 		bl	DBG_UART_Start
 583              	.LVL56:
 126:main.c        ****     
 127:main.c        ****     Println("Restart");
ARM GAS  C:\Users\casey\AppData\Local\Temp\ccxTeREU.s 			page 14


 584              		.loc 1 127 0
 585 0028 5748     		ldr	r0, .L45+16
 586 002a FFF7FEFF 		bl	DBG_UART_UartPutString
 587              	.LVL57:
 588 002e 574C     		ldr	r4, .L45+20
 589 0030 2000     		movs	r0, r4
 590 0032 FFF7FEFF 		bl	DBG_UART_UartPutString
 591              	.LVL58:
 128:main.c        ****     
 129:main.c        ****     // TODO get these values from CAN init packet
 130:main.c        ****     int stepMode = 1;
 131:main.c        ****     double maxVelocity = 6000; // deg/s
 132:main.c        ****     double maxAcceleration = 1000; // deg/s/s
 133:main.c        ****     
 134:main.c        ****     
 135:main.c        ****     
 136:main.c        ****     if (stepMode == 1) {
 137:main.c        ****         stepSize = 360.0/200;
 592              		.loc 1 137 0
 593 0036 5648     		ldr	r0, .L45+24
 594 0038 5649     		ldr	r1, .L45+28
 595 003a 574B     		ldr	r3, .L45+32
 596 003c 1860     		str	r0, [r3]
 597 003e 5960     		str	r1, [r3, #4]
 138:main.c        ****     }
 139:main.c        ****     
 140:main.c        ****     if (maxVelocity > 6000) {
 141:main.c        ****         maxVelocity = 6000;
 142:main.c        ****     }
 143:main.c        ****     vel = maxVelocity/stepSize;
 598              		.loc 1 143 0
 599 0040 5648     		ldr	r0, .L45+36
 600 0042 5749     		ldr	r1, .L45+40
 601 0044 574B     		ldr	r3, .L45+44
 602 0046 1860     		str	r0, [r3]
 603 0048 5960     		str	r1, [r3, #4]
 144:main.c        ****     accel = maxAcceleration/stepSize;
 604              		.loc 1 144 0
 605 004a 5748     		ldr	r0, .L45+48
 606 004c 5749     		ldr	r1, .L45+52
 607 004e 584B     		ldr	r3, .L45+56
 608 0050 1860     		str	r0, [r3]
 609 0052 5960     		str	r1, [r3, #4]
 145:main.c        ****     
 146:main.c        ****     
 147:main.c        ****     E_max = vel*vel/2/accel;
 610              		.loc 1 147 0
 611 0054 574D     		ldr	r5, .L45+60
 612 0056 584B     		ldr	r3, .L45+64
 613 0058 2B60     		str	r3, [r5]
 148:main.c        ****     
 149:main.c        ****     if (E_max == 0) {
 150:main.c        ****         E_max = 1;
 151:main.c        ****         accel = vel*vel;
 152:main.c        ****     }
 153:main.c        ****     
 154:main.c        ****     
ARM GAS  C:\Users\casey\AppData\Local\Temp\ccxTeREU.s 			page 15


 155:main.c        ****     Print("E_max is ");
 614              		.loc 1 155 0
 615 005a 5848     		ldr	r0, .L45+68
 616 005c FFF7FEFF 		bl	DBG_UART_UartPutString
 617              	.LVL59:
 156:main.c        ****     PrintInt(E_max);
 618              		.loc 1 156 0
 619 0060 2868     		ldr	r0, [r5]
 620 0062 0A22     		movs	r2, #10
 621 0064 5649     		ldr	r1, .L45+72
 622 0066 FFF7FEFF 		bl	itoa
 623              	.LVL60:
 624 006a FFF7FEFF 		bl	DBG_UART_UartPutString
 625              	.LVL61:
 157:main.c        ****     Println("");
 626              		.loc 1 157 0
 627 006e 5548     		ldr	r0, .L45+76
 628 0070 FFF7FEFF 		bl	DBG_UART_UartPutString
 629              	.LVL62:
 630 0074 2000     		movs	r0, r4
 631 0076 FFF7FEFF 		bl	DBG_UART_UartPutString
 632              	.LVL63:
 633              	.L37:
 634              	.LBB3:
 158:main.c        ****     
 159:main.c        ****     for(;;)
 160:main.c        ****     {
 161:main.c        ****         int data = DBG_UART_UartGetByte();
 635              		.loc 1 161 0
 636 007a FFF7FEFF 		bl	DBG_UART_UartGetByte
 637              	.LVL64:
 162:main.c        ****         if (data == STATUS) {
 638              		.loc 1 162 0
 639 007e 7128     		cmp	r0, #113
 640 0080 33D1     		bne	.L38
 163:main.c        ****             Print("Step period:");
 641              		.loc 1 163 0
 642 0082 5148     		ldr	r0, .L45+80
 643              	.LVL65:
 644 0084 FFF7FEFF 		bl	DBG_UART_UartPutString
 645              	.LVL66:
 164:main.c        ****             PrintInt(Step_Timer_ReadPeriod());
 646              		.loc 1 164 0
 647 0088 FFF7FEFF 		bl	Step_Timer_ReadPeriod
 648              	.LVL67:
 649 008c 4C4C     		ldr	r4, .L45+72
 650 008e 0A22     		movs	r2, #10
 651 0090 2100     		movs	r1, r4
 652 0092 FFF7FEFF 		bl	itoa
 653              	.LVL68:
 654 0096 FFF7FEFF 		bl	DBG_UART_UartPutString
 655              	.LVL69:
 165:main.c        ****             Print(" Timer Count:");
 656              		.loc 1 165 0
 657 009a 4C48     		ldr	r0, .L45+84
 658 009c FFF7FEFF 		bl	DBG_UART_UartPutString
 659              	.LVL70:
ARM GAS  C:\Users\casey\AppData\Local\Temp\ccxTeREU.s 			page 16


 166:main.c        ****             PrintInt(Step_Timer_ReadCounter());
 660              		.loc 1 166 0
 661 00a0 FFF7FEFF 		bl	Step_Timer_ReadCounter
 662              	.LVL71:
 663 00a4 0A22     		movs	r2, #10
 664 00a6 2100     		movs	r1, r4
 665 00a8 FFF7FEFF 		bl	itoa
 666              	.LVL72:
 667 00ac FFF7FEFF 		bl	DBG_UART_UartPutString
 668              	.LVL73:
 167:main.c        ****             Print(" Position:");
 669              		.loc 1 167 0
 670 00b0 4748     		ldr	r0, .L45+88
 671 00b2 FFF7FEFF 		bl	DBG_UART_UartPutString
 672              	.LVL74:
 168:main.c        ****             PrintInt(Step_Counter_ReadCounter());
 673              		.loc 1 168 0
 674 00b6 FFF7FEFF 		bl	Step_Counter_ReadCounter
 675              	.LVL75:
 676 00ba 0A22     		movs	r2, #10
 677 00bc 2100     		movs	r1, r4
 678 00be FFF7FEFF 		bl	itoa
 679              	.LVL76:
 680 00c2 FFF7FEFF 		bl	DBG_UART_UartPutString
 681              	.LVL77:
 169:main.c        ****             Print(" E:");
 682              		.loc 1 169 0
 683 00c6 4348     		ldr	r0, .L45+92
 684 00c8 FFF7FEFF 		bl	DBG_UART_UartPutString
 685              	.LVL78:
 170:main.c        ****             PrintInt(E);
 686              		.loc 1 170 0
 687 00cc 424B     		ldr	r3, .L45+96
 688 00ce 5868     		ldr	r0, [r3, #4]
 689 00d0 0A22     		movs	r2, #10
 690 00d2 2100     		movs	r1, r4
 691 00d4 FFF7FEFF 		bl	itoa
 692              	.LVL79:
 693 00d8 FFF7FEFF 		bl	DBG_UART_UartPutString
 694              	.LVL80:
 171:main.c        ****             Println("");
 695              		.loc 1 171 0
 696 00dc 3948     		ldr	r0, .L45+76
 697 00de FFF7FEFF 		bl	DBG_UART_UartPutString
 698              	.LVL81:
 699 00e2 2A48     		ldr	r0, .L45+20
 700 00e4 FFF7FEFF 		bl	DBG_UART_UartPutString
 701              	.LVL82:
 702 00e8 C7E7     		b	.L37
 703              	.LVL83:
 704              	.L38:
 172:main.c        ****         } else if (data == RIGHT) {
 705              		.loc 1 172 0
 706 00ea 6428     		cmp	r0, #100
 707 00ec 04D1     		bne	.L40
 173:main.c        ****             Step(dbg_step);
 708              		.loc 1 173 0
ARM GAS  C:\Users\casey\AppData\Local\Temp\ccxTeREU.s 			page 17


 709 00ee 3B4B     		ldr	r3, .L45+100
 710 00f0 1868     		ldr	r0, [r3]
 711              	.LVL84:
 712 00f2 FFF7FEFF 		bl	Step
 713              	.LVL85:
 714 00f6 C0E7     		b	.L37
 715              	.LVL86:
 716              	.L40:
 174:main.c        ****         } else if (data == LEFT) {
 717              		.loc 1 174 0
 718 00f8 6128     		cmp	r0, #97
 719 00fa 05D1     		bne	.L41
 175:main.c        ****             Step(-dbg_step);
 720              		.loc 1 175 0
 721 00fc 374B     		ldr	r3, .L45+100
 722 00fe 1868     		ldr	r0, [r3]
 723              	.LVL87:
 724 0100 4042     		rsbs	r0, r0, #0
 725 0102 FFF7FEFF 		bl	Step
 726              	.LVL88:
 727 0106 B8E7     		b	.L37
 728              	.LVL89:
 729              	.L41:
 176:main.c        ****         } else if (data == UP) {
 730              		.loc 1 176 0
 731 0108 7728     		cmp	r0, #119
 732 010a 14D1     		bne	.L42
 177:main.c        ****             dbg_step *= 2;
 733              		.loc 1 177 0
 734 010c 334C     		ldr	r4, .L45+100
 735 010e 2368     		ldr	r3, [r4]
 736 0110 5B00     		lsls	r3, r3, #1
 737 0112 2360     		str	r3, [r4]
 178:main.c        ****             Print("Step by ");
 738              		.loc 1 178 0
 739 0114 3248     		ldr	r0, .L45+104
 740              	.LVL90:
 741 0116 FFF7FEFF 		bl	DBG_UART_UartPutString
 742              	.LVL91:
 179:main.c        ****             PrintInt(dbg_step);
 743              		.loc 1 179 0
 744 011a 2068     		ldr	r0, [r4]
 745 011c 0A22     		movs	r2, #10
 746 011e 2849     		ldr	r1, .L45+72
 747 0120 FFF7FEFF 		bl	itoa
 748              	.LVL92:
 749 0124 FFF7FEFF 		bl	DBG_UART_UartPutString
 750              	.LVL93:
 180:main.c        ****             Println("");
 751              		.loc 1 180 0
 752 0128 2648     		ldr	r0, .L45+76
 753 012a FFF7FEFF 		bl	DBG_UART_UartPutString
 754              	.LVL94:
 755 012e 1748     		ldr	r0, .L45+20
 756 0130 FFF7FEFF 		bl	DBG_UART_UartPutString
 757              	.LVL95:
 758 0134 A1E7     		b	.L37
ARM GAS  C:\Users\casey\AppData\Local\Temp\ccxTeREU.s 			page 18


 759              	.LVL96:
 760              	.L42:
 181:main.c        ****         } else if (data == DOWN) {
 761              		.loc 1 181 0
 762 0136 7328     		cmp	r0, #115
 763 0138 9FD1     		bne	.L37
 182:main.c        ****             if (dbg_step > 1) {
 764              		.loc 1 182 0
 765 013a 284B     		ldr	r3, .L45+100
 766 013c 1B68     		ldr	r3, [r3]
 767 013e 012B     		cmp	r3, #1
 768 0140 05DD     		ble	.L43
 183:main.c        ****                 dbg_step /= 2;
 769              		.loc 1 183 0
 770 0142 DA0F     		lsrs	r2, r3, #31
 771 0144 D318     		adds	r3, r2, r3
 772 0146 5B10     		asrs	r3, r3, #1
 773 0148 244A     		ldr	r2, .L45+100
 774 014a 1360     		str	r3, [r2]
 775 014c 02E0     		b	.L44
 776              	.L43:
 184:main.c        ****             } else {
 185:main.c        ****                 dbg_step = 1;
 777              		.loc 1 185 0
 778 014e 0122     		movs	r2, #1
 779 0150 224B     		ldr	r3, .L45+100
 780 0152 1A60     		str	r2, [r3]
 781              	.L44:
 186:main.c        ****             }
 187:main.c        ****             Print("Step by ");
 782              		.loc 1 187 0
 783 0154 2248     		ldr	r0, .L45+104
 784              	.LVL97:
 785 0156 FFF7FEFF 		bl	DBG_UART_UartPutString
 786              	.LVL98:
 188:main.c        ****             PrintInt(dbg_step);
 787              		.loc 1 188 0
 788 015a 204B     		ldr	r3, .L45+100
 789 015c 1868     		ldr	r0, [r3]
 790 015e 0A22     		movs	r2, #10
 791 0160 1749     		ldr	r1, .L45+72
 792 0162 FFF7FEFF 		bl	itoa
 793              	.LVL99:
 794 0166 FFF7FEFF 		bl	DBG_UART_UartPutString
 795              	.LVL100:
 189:main.c        ****             Println("");
 796              		.loc 1 189 0
 797 016a 1648     		ldr	r0, .L45+76
 798 016c FFF7FEFF 		bl	DBG_UART_UartPutString
 799              	.LVL101:
 800 0170 0648     		ldr	r0, .L45+20
 801 0172 FFF7FEFF 		bl	DBG_UART_UartPutString
 802              	.LVL102:
 803 0176 80E7     		b	.L37
 804              	.L46:
 805              		.align	2
 806              	.L45:
ARM GAS  C:\Users\casey\AppData\Local\Temp\ccxTeREU.s 			page 19


 807 0178 00000000 		.word	On_Lim_1
 808 017c 00000000 		.word	On_Lim_2
 809 0180 00000000 		.word	On_Fault
 810 0184 00000000 		.word	On_Step
 811 0188 58000000 		.word	.LC28
 812 018c 14000000 		.word	.LC3
 813 0190 CDCCCCCC 		.word	-858993459
 814 0194 CCCCFC3F 		.word	1073532108
 815 0198 00000000 		.word	stepSize
 816 019c AAAAAAAA 		.word	-1431655766
 817 01a0 AA0AAA40 		.word	1084885674
 818 01a4 00000000 		.word	vel
 819 01a8 C7711CC7 		.word	-954437177
 820 01ac 715C8140 		.word	1082219633
 821 01b0 00000000 		.word	accel
 822 01b4 00000000 		.word	E_max
 823 01b8 0F270000 		.word	9999
 824 01bc 60000000 		.word	.LC35
 825 01c0 00000000 		.word	debugOutput
 826 01c4 54000000 		.word	.LC19
 827 01c8 6C000000 		.word	.LC39
 828 01cc 7C000000 		.word	.LC41
 829 01d0 8C000000 		.word	.LC43
 830 01d4 98000000 		.word	.LC45
 831 01d8 00000000 		.word	.LANCHOR0
 832 01dc 00000000 		.word	.LANCHOR1
 833 01e0 9C000000 		.word	.LC49
 834              	.LBE3:
 835              		.cfi_endproc
 836              	.LFE45:
 837              		.size	main, .-main
 838              		.global	E
 839              		.global	dbg_step
 840              		.global	targetPosition
 841              		.comm	E_max,4,4
 842              		.comm	stepSize,8,8
 843              		.comm	vel,8,8
 844              		.comm	accel,8,8
 845              		.global	CLOCK_FREQUENCY
 846              		.comm	debugOutput,32,4
 847              		.section	.rodata
 848              		.align	2
 849              		.type	CLOCK_FREQUENCY, %object
 850              		.size	CLOCK_FREQUENCY, 4
 851              	CLOCK_FREQUENCY:
 852 0000 40420F00 		.word	1000000
 853              		.data
 854              		.align	2
 855              		.set	.LANCHOR1,. + 0
 856              		.type	dbg_step, %object
 857              		.size	dbg_step, 4
 858              	dbg_step:
 859 0000 01000000 		.word	1
 860              		.section	.rodata.str1.4,"aMS",%progbits,1
 861              		.align	2
 862              	.LC1:
 863 0000 48697420 		.ascii	"Hit limit switch 1\000"
ARM GAS  C:\Users\casey\AppData\Local\Temp\ccxTeREU.s 			page 20


 863      6C696D69 
 863      74207377 
 863      69746368 
 863      203100
 864 0013 00       		.space	1
 865              	.LC3:
 866 0014 0A0D00   		.ascii	"\012\015\000"
 867 0017 00       		.space	1
 868              	.LC5:
 869 0018 48697420 		.ascii	"Hit limit switch 2\000"
 869      6C696D69 
 869      74207377 
 869      69746368 
 869      203200
 870 002b 00       		.space	1
 871              	.LC8:
 872 002c 44726976 		.ascii	"Driver fault\000"
 872      65722066 
 872      61756C74 
 872      00
 873 0039 000000   		.space	3
 874              	.LC14:
 875 003c 41727269 		.ascii	"Arrived at Target\342\204\242\000"
 875      76656420 
 875      61742054 
 875      61726765 
 875      74E284A2 
 876 0051 000000   		.space	3
 877              	.LC19:
 878 0054 00       		.ascii	"\000"
 879 0055 000000   		.space	3
 880              	.LC28:
 881 0058 52657374 		.ascii	"Restart\000"
 881      61727400 
 882              	.LC35:
 883 0060 455F6D61 		.ascii	"E_max is \000"
 883      78206973 
 883      2000
 884 006a 0000     		.space	2
 885              	.LC39:
 886 006c 53746570 		.ascii	"Step period:\000"
 886      20706572 
 886      696F643A 
 886      00
 887 0079 000000   		.space	3
 888              	.LC41:
 889 007c 2054696D 		.ascii	" Timer Count:\000"
 889      65722043 
 889      6F756E74 
 889      3A00
 890 008a 0000     		.space	2
 891              	.LC43:
 892 008c 20506F73 		.ascii	" Position:\000"
 892      6974696F 
 892      6E3A00
 893 0097 00       		.space	1
 894              	.LC45:
ARM GAS  C:\Users\casey\AppData\Local\Temp\ccxTeREU.s 			page 21


 895 0098 20453A00 		.ascii	" E:\000"
 896              	.LC49:
 897 009c 53746570 		.ascii	"Step by \000"
 897      20627920 
 897      00
 898              		.bss
 899              		.align	2
 900              		.set	.LANCHOR0,. + 0
 901              		.type	targetPosition, %object
 902              		.size	targetPosition, 4
 903              	targetPosition:
 904 0000 00000000 		.space	4
 905              		.type	E, %object
 906              		.size	E, 4
 907              	E:
 908 0004 00000000 		.space	4
 909              		.text
 910              	.Letext0:
 911              		.file 2 "main.h"
 912              		.file 3 "Generated_Source\\PSoC4/Step_Counter.h"
 913              		.file 4 "Generated_Source\\PSoC4/Enable.h"
 914              		.file 5 "Generated_Source\\PSoC4/DBG_UART_SPI_UART.h"
 915              		.file 6 "Generated_Source\\PSoC4/isr_lim_1.h"
 916              		.file 7 "Generated_Source\\PSoC4/isr_lim_2.h"
 917              		.file 8 "Generated_Source\\PSoC4/isr_fault.h"
 918              		.file 9 "Generated_Source\\PSoC4/Step_Timer.h"
 919              		.file 10 "c:\\program files (x86)\\cypress\\psoc creator\\4.4\\psoc creator\\import\\gnu\\arm\\5.4
 920              		.file 11 "Generated_Source\\PSoC4/Direction.h"
 921              		.file 12 "Generated_Source\\PSoC4/isr_step.h"
 922              		.file 13 "c:\\program files (x86)\\cypress\\psoc creator\\4.4\\psoc creator\\import\\gnu\\arm\\5.4
 923              		.file 14 "Generated_Source\\PSoC4/DBG_UART.h"