ARM GAS  C:\Users\casey\AppData\Local\Temp\ccq1xv64.s 			page 1


   1              		.syntax unified
   2              		.cpu cortex-m0
   3              		.fpu softvfp
   4              		.eabi_attribute 20, 1
   5              		.eabi_attribute 21, 1
   6              		.eabi_attribute 23, 3
   7              		.eabi_attribute 24, 1
   8              		.eabi_attribute 25, 1
   9              		.eabi_attribute 26, 1
  10              		.eabi_attribute 30, 1
  11              		.eabi_attribute 34, 0
  12              		.eabi_attribute 18, 4
  13              		.thumb
  14              		.syntax unified
  15              		.file	"Step_Timer.c"
  16              		.text
  17              	.Ltext0:
  18              		.cfi_sections	.debug_frame
  19              		.section	.text.Step_Timer_Enable,"ax",%progbits
  20              		.align	2
  21              		.global	Step_Timer_Enable
  22              		.code	16
  23              		.thumb_func
  24              		.type	Step_Timer_Enable, %function
  25              	Step_Timer_Enable:
  26              	.LFB2:
  27              		.file 1 "Generated_Source\\PSoC4\\Step_Timer.c"
   1:Generated_Source\PSoC4/Step_Timer.c **** /*******************************************************************************
   2:Generated_Source\PSoC4/Step_Timer.c **** * File Name: Step_Timer.c  
   3:Generated_Source\PSoC4/Step_Timer.c **** * Version 3.0
   4:Generated_Source\PSoC4/Step_Timer.c **** *
   5:Generated_Source\PSoC4/Step_Timer.c **** *  Description:
   6:Generated_Source\PSoC4/Step_Timer.c **** *     The Counter component consists of a 8, 16, 24 or 32-bit counter with
   7:Generated_Source\PSoC4/Step_Timer.c **** *     a selectable period between 2 and 2^Width - 1.  
   8:Generated_Source\PSoC4/Step_Timer.c **** *
   9:Generated_Source\PSoC4/Step_Timer.c **** *   Note:
  10:Generated_Source\PSoC4/Step_Timer.c **** *     None
  11:Generated_Source\PSoC4/Step_Timer.c **** *
  12:Generated_Source\PSoC4/Step_Timer.c **** ********************************************************************************
  13:Generated_Source\PSoC4/Step_Timer.c **** * Copyright 2008-2012, Cypress Semiconductor Corporation.  All rights reserved.
  14:Generated_Source\PSoC4/Step_Timer.c **** * You may use this file only in accordance with the license, terms, conditions, 
  15:Generated_Source\PSoC4/Step_Timer.c **** * disclaimers, and limitations in the end user license agreement accompanying 
  16:Generated_Source\PSoC4/Step_Timer.c **** * the software package with which this file was provided.
  17:Generated_Source\PSoC4/Step_Timer.c **** *******************************************************************************/
  18:Generated_Source\PSoC4/Step_Timer.c **** 
  19:Generated_Source\PSoC4/Step_Timer.c **** #include "Step_Timer.h"
  20:Generated_Source\PSoC4/Step_Timer.c **** 
  21:Generated_Source\PSoC4/Step_Timer.c **** uint8 Step_Timer_initVar = 0u;
  22:Generated_Source\PSoC4/Step_Timer.c **** 
  23:Generated_Source\PSoC4/Step_Timer.c **** 
  24:Generated_Source\PSoC4/Step_Timer.c **** /*******************************************************************************
  25:Generated_Source\PSoC4/Step_Timer.c **** * Function Name: Step_Timer_Init
  26:Generated_Source\PSoC4/Step_Timer.c **** ********************************************************************************
  27:Generated_Source\PSoC4/Step_Timer.c **** * Summary:
  28:Generated_Source\PSoC4/Step_Timer.c **** *     Initialize to the schematic state
  29:Generated_Source\PSoC4/Step_Timer.c **** * 
  30:Generated_Source\PSoC4/Step_Timer.c **** * Parameters:  
ARM GAS  C:\Users\casey\AppData\Local\Temp\ccq1xv64.s 			page 2


  31:Generated_Source\PSoC4/Step_Timer.c **** *  void  
  32:Generated_Source\PSoC4/Step_Timer.c **** *
  33:Generated_Source\PSoC4/Step_Timer.c **** * Return: 
  34:Generated_Source\PSoC4/Step_Timer.c **** *  void
  35:Generated_Source\PSoC4/Step_Timer.c **** *
  36:Generated_Source\PSoC4/Step_Timer.c **** *******************************************************************************/
  37:Generated_Source\PSoC4/Step_Timer.c **** void Step_Timer_Init(void) 
  38:Generated_Source\PSoC4/Step_Timer.c **** {
  39:Generated_Source\PSoC4/Step_Timer.c ****         #if (!Step_Timer_UsingFixedFunction && !Step_Timer_ControlRegRemoved)
  40:Generated_Source\PSoC4/Step_Timer.c ****             uint8 ctrl;
  41:Generated_Source\PSoC4/Step_Timer.c ****         #endif /* (!Step_Timer_UsingFixedFunction && !Step_Timer_ControlRegRemoved) */
  42:Generated_Source\PSoC4/Step_Timer.c ****         
  43:Generated_Source\PSoC4/Step_Timer.c ****         #if(!Step_Timer_UsingFixedFunction) 
  44:Generated_Source\PSoC4/Step_Timer.c ****             /* Interrupt State Backup for Critical Region*/
  45:Generated_Source\PSoC4/Step_Timer.c ****             uint8 Step_Timer_interruptState;
  46:Generated_Source\PSoC4/Step_Timer.c ****         #endif /* (!Step_Timer_UsingFixedFunction) */
  47:Generated_Source\PSoC4/Step_Timer.c ****         
  48:Generated_Source\PSoC4/Step_Timer.c ****         #if (Step_Timer_UsingFixedFunction)
  49:Generated_Source\PSoC4/Step_Timer.c ****             /* Clear all bits but the enable bit (if it's already set for Timer operation */
  50:Generated_Source\PSoC4/Step_Timer.c ****             Step_Timer_CONTROL &= Step_Timer_CTRL_ENABLE;
  51:Generated_Source\PSoC4/Step_Timer.c ****             
  52:Generated_Source\PSoC4/Step_Timer.c ****             /* Clear the mode bits for continuous run mode */
  53:Generated_Source\PSoC4/Step_Timer.c ****             #if (CY_PSOC5A)
  54:Generated_Source\PSoC4/Step_Timer.c ****                 Step_Timer_CONTROL2 &= ((uint8)(~Step_Timer_CTRL_MODE_MASK));
  55:Generated_Source\PSoC4/Step_Timer.c ****             #endif /* (CY_PSOC5A) */
  56:Generated_Source\PSoC4/Step_Timer.c ****             #if (CY_PSOC3 || CY_PSOC5LP)
  57:Generated_Source\PSoC4/Step_Timer.c ****                 Step_Timer_CONTROL3 &= ((uint8)(~Step_Timer_CTRL_MODE_MASK));                
  58:Generated_Source\PSoC4/Step_Timer.c ****             #endif /* (CY_PSOC3 || CY_PSOC5LP) */
  59:Generated_Source\PSoC4/Step_Timer.c ****             /* Check if One Shot mode is enabled i.e. RunMode !=0*/
  60:Generated_Source\PSoC4/Step_Timer.c ****             #if (Step_Timer_RunModeUsed != 0x0u)
  61:Generated_Source\PSoC4/Step_Timer.c ****                 /* Set 3rd bit of Control register to enable one shot mode */
  62:Generated_Source\PSoC4/Step_Timer.c ****                 Step_Timer_CONTROL |= Step_Timer_ONESHOT;
  63:Generated_Source\PSoC4/Step_Timer.c ****             #endif /* (Step_Timer_RunModeUsed != 0x0u) */
  64:Generated_Source\PSoC4/Step_Timer.c ****             
  65:Generated_Source\PSoC4/Step_Timer.c ****             /* Set the IRQ to use the status register interrupts */
  66:Generated_Source\PSoC4/Step_Timer.c ****             Step_Timer_CONTROL2 |= Step_Timer_CTRL2_IRQ_SEL;
  67:Generated_Source\PSoC4/Step_Timer.c ****             
  68:Generated_Source\PSoC4/Step_Timer.c ****             /* Clear and Set SYNCTC and SYNCCMP bits of RT1 register */
  69:Generated_Source\PSoC4/Step_Timer.c ****             Step_Timer_RT1 &= ((uint8)(~Step_Timer_RT1_MASK));
  70:Generated_Source\PSoC4/Step_Timer.c ****             Step_Timer_RT1 |= Step_Timer_SYNC;     
  71:Generated_Source\PSoC4/Step_Timer.c ****                     
  72:Generated_Source\PSoC4/Step_Timer.c ****             /*Enable DSI Sync all all inputs of the Timer*/
  73:Generated_Source\PSoC4/Step_Timer.c ****             Step_Timer_RT1 &= ((uint8)(~Step_Timer_SYNCDSI_MASK));
  74:Generated_Source\PSoC4/Step_Timer.c ****             Step_Timer_RT1 |= Step_Timer_SYNCDSI_EN;
  75:Generated_Source\PSoC4/Step_Timer.c **** 
  76:Generated_Source\PSoC4/Step_Timer.c ****         #else
  77:Generated_Source\PSoC4/Step_Timer.c ****             #if(!Step_Timer_ControlRegRemoved)
  78:Generated_Source\PSoC4/Step_Timer.c ****             /* Set the default compare mode defined in the parameter */
  79:Generated_Source\PSoC4/Step_Timer.c ****             ctrl = Step_Timer_CONTROL & ((uint8)(~Step_Timer_CTRL_CMPMODE_MASK));
  80:Generated_Source\PSoC4/Step_Timer.c ****             Step_Timer_CONTROL = ctrl | Step_Timer_DEFAULT_COMPARE_MODE;
  81:Generated_Source\PSoC4/Step_Timer.c ****             
  82:Generated_Source\PSoC4/Step_Timer.c ****             /* Set the default capture mode defined in the parameter */
  83:Generated_Source\PSoC4/Step_Timer.c ****             ctrl = Step_Timer_CONTROL & ((uint8)(~Step_Timer_CTRL_CAPMODE_MASK));
  84:Generated_Source\PSoC4/Step_Timer.c ****             
  85:Generated_Source\PSoC4/Step_Timer.c ****             #if( 0 != Step_Timer_CAPTURE_MODE_CONF)
  86:Generated_Source\PSoC4/Step_Timer.c ****                 Step_Timer_CONTROL = ctrl | Step_Timer_DEFAULT_CAPTURE_MODE;
  87:Generated_Source\PSoC4/Step_Timer.c ****             #else
ARM GAS  C:\Users\casey\AppData\Local\Temp\ccq1xv64.s 			page 3


  88:Generated_Source\PSoC4/Step_Timer.c ****                 Step_Timer_CONTROL = ctrl;
  89:Generated_Source\PSoC4/Step_Timer.c ****             #endif /* 0 != Step_Timer_CAPTURE_MODE */ 
  90:Generated_Source\PSoC4/Step_Timer.c ****             
  91:Generated_Source\PSoC4/Step_Timer.c ****             #endif /* (!Step_Timer_ControlRegRemoved) */
  92:Generated_Source\PSoC4/Step_Timer.c ****         #endif /* (Step_Timer_UsingFixedFunction) */
  93:Generated_Source\PSoC4/Step_Timer.c ****         
  94:Generated_Source\PSoC4/Step_Timer.c ****         /* Clear all data in the FIFO's */
  95:Generated_Source\PSoC4/Step_Timer.c ****         #if (!Step_Timer_UsingFixedFunction)
  96:Generated_Source\PSoC4/Step_Timer.c ****             Step_Timer_ClearFIFO();
  97:Generated_Source\PSoC4/Step_Timer.c ****         #endif /* (!Step_Timer_UsingFixedFunction) */
  98:Generated_Source\PSoC4/Step_Timer.c ****         
  99:Generated_Source\PSoC4/Step_Timer.c ****         /* Set Initial values from Configuration */
 100:Generated_Source\PSoC4/Step_Timer.c ****         Step_Timer_WritePeriod(Step_Timer_INIT_PERIOD_VALUE);
 101:Generated_Source\PSoC4/Step_Timer.c ****         #if (!(Step_Timer_UsingFixedFunction && (CY_PSOC5A)))
 102:Generated_Source\PSoC4/Step_Timer.c ****             Step_Timer_WriteCounter(Step_Timer_INIT_COUNTER_VALUE);
 103:Generated_Source\PSoC4/Step_Timer.c ****         #endif /* (!(Step_Timer_UsingFixedFunction && (CY_PSOC5A))) */
 104:Generated_Source\PSoC4/Step_Timer.c ****         Step_Timer_SetInterruptMode(Step_Timer_INIT_INTERRUPTS_MASK);
 105:Generated_Source\PSoC4/Step_Timer.c ****         
 106:Generated_Source\PSoC4/Step_Timer.c ****         #if (!Step_Timer_UsingFixedFunction)
 107:Generated_Source\PSoC4/Step_Timer.c ****             /* Read the status register to clear the unwanted interrupts */
 108:Generated_Source\PSoC4/Step_Timer.c ****             (void)Step_Timer_ReadStatusRegister();
 109:Generated_Source\PSoC4/Step_Timer.c ****             /* Set the compare value (only available to non-fixed function implementation */
 110:Generated_Source\PSoC4/Step_Timer.c ****             Step_Timer_WriteCompare(Step_Timer_INIT_COMPARE_VALUE);
 111:Generated_Source\PSoC4/Step_Timer.c ****             /* Use the interrupt output of the status register for IRQ output */
 112:Generated_Source\PSoC4/Step_Timer.c ****             
 113:Generated_Source\PSoC4/Step_Timer.c ****             /* CyEnterCriticalRegion and CyExitCriticalRegion are used to mark following region cri
 114:Generated_Source\PSoC4/Step_Timer.c ****             /* Enter Critical Region*/
 115:Generated_Source\PSoC4/Step_Timer.c ****             Step_Timer_interruptState = CyEnterCriticalSection();
 116:Generated_Source\PSoC4/Step_Timer.c ****             
 117:Generated_Source\PSoC4/Step_Timer.c ****             Step_Timer_STATUS_AUX_CTRL |= Step_Timer_STATUS_ACTL_INT_EN_MASK;
 118:Generated_Source\PSoC4/Step_Timer.c ****             
 119:Generated_Source\PSoC4/Step_Timer.c ****             /* Exit Critical Region*/
 120:Generated_Source\PSoC4/Step_Timer.c ****             CyExitCriticalSection(Step_Timer_interruptState);
 121:Generated_Source\PSoC4/Step_Timer.c ****             
 122:Generated_Source\PSoC4/Step_Timer.c ****         #endif /* (!Step_Timer_UsingFixedFunction) */
 123:Generated_Source\PSoC4/Step_Timer.c **** }
 124:Generated_Source\PSoC4/Step_Timer.c **** 
 125:Generated_Source\PSoC4/Step_Timer.c **** 
 126:Generated_Source\PSoC4/Step_Timer.c **** /*******************************************************************************
 127:Generated_Source\PSoC4/Step_Timer.c **** * Function Name: Step_Timer_Enable
 128:Generated_Source\PSoC4/Step_Timer.c **** ********************************************************************************
 129:Generated_Source\PSoC4/Step_Timer.c **** * Summary:
 130:Generated_Source\PSoC4/Step_Timer.c **** *     Enable the Counter
 131:Generated_Source\PSoC4/Step_Timer.c **** * 
 132:Generated_Source\PSoC4/Step_Timer.c **** * Parameters:  
 133:Generated_Source\PSoC4/Step_Timer.c **** *  void  
 134:Generated_Source\PSoC4/Step_Timer.c **** *
 135:Generated_Source\PSoC4/Step_Timer.c **** * Return: 
 136:Generated_Source\PSoC4/Step_Timer.c **** *  void
 137:Generated_Source\PSoC4/Step_Timer.c **** *
 138:Generated_Source\PSoC4/Step_Timer.c **** * Side Effects: 
 139:Generated_Source\PSoC4/Step_Timer.c **** *   If the Enable mode is set to Hardware only then this function has no effect 
 140:Generated_Source\PSoC4/Step_Timer.c **** *   on the operation of the counter.
 141:Generated_Source\PSoC4/Step_Timer.c **** *
 142:Generated_Source\PSoC4/Step_Timer.c **** *******************************************************************************/
 143:Generated_Source\PSoC4/Step_Timer.c **** void Step_Timer_Enable(void) 
 144:Generated_Source\PSoC4/Step_Timer.c **** {
ARM GAS  C:\Users\casey\AppData\Local\Temp\ccq1xv64.s 			page 4


  28              		.loc 1 144 0
  29              		.cfi_startproc
  30              		@ args = 0, pretend = 0, frame = 0
  31              		@ frame_needed = 0, uses_anonymous_args = 0
  32              		@ link register save eliminated.
 145:Generated_Source\PSoC4/Step_Timer.c ****     /* Globally Enable the Fixed Function Block chosen */
 146:Generated_Source\PSoC4/Step_Timer.c ****     #if (Step_Timer_UsingFixedFunction)
 147:Generated_Source\PSoC4/Step_Timer.c ****         Step_Timer_GLOBAL_ENABLE |= Step_Timer_BLOCK_EN_MASK;
 148:Generated_Source\PSoC4/Step_Timer.c ****         Step_Timer_GLOBAL_STBY_ENABLE |= Step_Timer_BLOCK_STBY_EN_MASK;
 149:Generated_Source\PSoC4/Step_Timer.c ****     #endif /* (Step_Timer_UsingFixedFunction) */  
 150:Generated_Source\PSoC4/Step_Timer.c ****         
 151:Generated_Source\PSoC4/Step_Timer.c ****     /* Enable the counter from the control register  */
 152:Generated_Source\PSoC4/Step_Timer.c ****     /* If Fixed Function then make sure Mode is set correctly */
 153:Generated_Source\PSoC4/Step_Timer.c ****     /* else make sure reset is clear */
 154:Generated_Source\PSoC4/Step_Timer.c ****     #if(!Step_Timer_ControlRegRemoved || Step_Timer_UsingFixedFunction)
 155:Generated_Source\PSoC4/Step_Timer.c ****         Step_Timer_CONTROL |= Step_Timer_CTRL_ENABLE;                
  33              		.loc 1 155 0
  34 0000 034A     		ldr	r2, .L2
  35 0002 1178     		ldrb	r1, [r2]
  36 0004 8023     		movs	r3, #128
  37 0006 5B42     		rsbs	r3, r3, #0
  38 0008 0B43     		orrs	r3, r1
  39 000a DBB2     		uxtb	r3, r3
  40 000c 1370     		strb	r3, [r2]
 156:Generated_Source\PSoC4/Step_Timer.c ****     #endif /* (!Step_Timer_ControlRegRemoved || Step_Timer_UsingFixedFunction) */
 157:Generated_Source\PSoC4/Step_Timer.c ****     
 158:Generated_Source\PSoC4/Step_Timer.c **** }
  41              		.loc 1 158 0
  42              		@ sp needed
  43 000e 7047     		bx	lr
  44              	.L3:
  45              		.align	2
  46              	.L2:
  47 0010 74000F40 		.word	1074724980
  48              		.cfi_endproc
  49              	.LFE2:
  50              		.size	Step_Timer_Enable, .-Step_Timer_Enable
  51              		.section	.text.Step_Timer_Stop,"ax",%progbits
  52              		.align	2
  53              		.global	Step_Timer_Stop
  54              		.code	16
  55              		.thumb_func
  56              		.type	Step_Timer_Stop, %function
  57              	Step_Timer_Stop:
  58              	.LFB4:
 159:Generated_Source\PSoC4/Step_Timer.c **** 
 160:Generated_Source\PSoC4/Step_Timer.c **** 
 161:Generated_Source\PSoC4/Step_Timer.c **** /*******************************************************************************
 162:Generated_Source\PSoC4/Step_Timer.c **** * Function Name: Step_Timer_Start
 163:Generated_Source\PSoC4/Step_Timer.c **** ********************************************************************************
 164:Generated_Source\PSoC4/Step_Timer.c **** * Summary:
 165:Generated_Source\PSoC4/Step_Timer.c **** *  Enables the counter for operation 
 166:Generated_Source\PSoC4/Step_Timer.c **** *
 167:Generated_Source\PSoC4/Step_Timer.c **** * Parameters:  
 168:Generated_Source\PSoC4/Step_Timer.c **** *  void  
 169:Generated_Source\PSoC4/Step_Timer.c **** *
 170:Generated_Source\PSoC4/Step_Timer.c **** * Return: 
ARM GAS  C:\Users\casey\AppData\Local\Temp\ccq1xv64.s 			page 5


 171:Generated_Source\PSoC4/Step_Timer.c **** *  void
 172:Generated_Source\PSoC4/Step_Timer.c **** *
 173:Generated_Source\PSoC4/Step_Timer.c **** * Global variables:
 174:Generated_Source\PSoC4/Step_Timer.c **** *  Step_Timer_initVar: Is modified when this function is called for the  
 175:Generated_Source\PSoC4/Step_Timer.c **** *   first time. Is used to ensure that initialization happens only once.
 176:Generated_Source\PSoC4/Step_Timer.c **** *
 177:Generated_Source\PSoC4/Step_Timer.c **** *******************************************************************************/
 178:Generated_Source\PSoC4/Step_Timer.c **** void Step_Timer_Start(void) 
 179:Generated_Source\PSoC4/Step_Timer.c **** {
 180:Generated_Source\PSoC4/Step_Timer.c ****     if(Step_Timer_initVar == 0u)
 181:Generated_Source\PSoC4/Step_Timer.c ****     {
 182:Generated_Source\PSoC4/Step_Timer.c ****         Step_Timer_Init();
 183:Generated_Source\PSoC4/Step_Timer.c ****         
 184:Generated_Source\PSoC4/Step_Timer.c ****         Step_Timer_initVar = 1u; /* Clear this bit for Initialization */        
 185:Generated_Source\PSoC4/Step_Timer.c ****     }
 186:Generated_Source\PSoC4/Step_Timer.c ****     
 187:Generated_Source\PSoC4/Step_Timer.c ****     /* Enable the Counter */
 188:Generated_Source\PSoC4/Step_Timer.c ****     Step_Timer_Enable();        
 189:Generated_Source\PSoC4/Step_Timer.c **** }
 190:Generated_Source\PSoC4/Step_Timer.c **** 
 191:Generated_Source\PSoC4/Step_Timer.c **** 
 192:Generated_Source\PSoC4/Step_Timer.c **** /*******************************************************************************
 193:Generated_Source\PSoC4/Step_Timer.c **** * Function Name: Step_Timer_Stop
 194:Generated_Source\PSoC4/Step_Timer.c **** ********************************************************************************
 195:Generated_Source\PSoC4/Step_Timer.c **** * Summary:
 196:Generated_Source\PSoC4/Step_Timer.c **** * Halts the counter, but does not change any modes or disable interrupts.
 197:Generated_Source\PSoC4/Step_Timer.c **** *
 198:Generated_Source\PSoC4/Step_Timer.c **** * Parameters:  
 199:Generated_Source\PSoC4/Step_Timer.c **** *  void  
 200:Generated_Source\PSoC4/Step_Timer.c **** *
 201:Generated_Source\PSoC4/Step_Timer.c **** * Return: 
 202:Generated_Source\PSoC4/Step_Timer.c **** *  void
 203:Generated_Source\PSoC4/Step_Timer.c **** *
 204:Generated_Source\PSoC4/Step_Timer.c **** * Side Effects: If the Enable mode is set to Hardware only then this function
 205:Generated_Source\PSoC4/Step_Timer.c **** *               has no effect on the operation of the counter.
 206:Generated_Source\PSoC4/Step_Timer.c **** *
 207:Generated_Source\PSoC4/Step_Timer.c **** *******************************************************************************/
 208:Generated_Source\PSoC4/Step_Timer.c **** void Step_Timer_Stop(void) 
 209:Generated_Source\PSoC4/Step_Timer.c **** {
  59              		.loc 1 209 0
  60              		.cfi_startproc
  61              		@ args = 0, pretend = 0, frame = 0
  62              		@ frame_needed = 0, uses_anonymous_args = 0
  63              		@ link register save eliminated.
 210:Generated_Source\PSoC4/Step_Timer.c ****     /* Disable Counter */
 211:Generated_Source\PSoC4/Step_Timer.c ****     #if(!Step_Timer_ControlRegRemoved || Step_Timer_UsingFixedFunction)
 212:Generated_Source\PSoC4/Step_Timer.c ****         Step_Timer_CONTROL &= ((uint8)(~Step_Timer_CTRL_ENABLE));        
  64              		.loc 1 212 0
  65 0000 024A     		ldr	r2, .L5
  66 0002 1178     		ldrb	r1, [r2]
  67 0004 7F23     		movs	r3, #127
  68 0006 0B40     		ands	r3, r1
  69 0008 1370     		strb	r3, [r2]
 213:Generated_Source\PSoC4/Step_Timer.c ****     #endif /* (!Step_Timer_ControlRegRemoved || Step_Timer_UsingFixedFunction) */
 214:Generated_Source\PSoC4/Step_Timer.c ****     
 215:Generated_Source\PSoC4/Step_Timer.c ****     /* Globally disable the Fixed Function Block chosen */
 216:Generated_Source\PSoC4/Step_Timer.c ****     #if (Step_Timer_UsingFixedFunction)
ARM GAS  C:\Users\casey\AppData\Local\Temp\ccq1xv64.s 			page 6


 217:Generated_Source\PSoC4/Step_Timer.c ****         Step_Timer_GLOBAL_ENABLE &= ((uint8)(~Step_Timer_BLOCK_EN_MASK));
 218:Generated_Source\PSoC4/Step_Timer.c ****         Step_Timer_GLOBAL_STBY_ENABLE &= ((uint8)(~Step_Timer_BLOCK_STBY_EN_MASK));
 219:Generated_Source\PSoC4/Step_Timer.c ****     #endif /* (Step_Timer_UsingFixedFunction) */
 220:Generated_Source\PSoC4/Step_Timer.c **** }
  70              		.loc 1 220 0
  71              		@ sp needed
  72 000a 7047     		bx	lr
  73              	.L6:
  74              		.align	2
  75              	.L5:
  76 000c 74000F40 		.word	1074724980
  77              		.cfi_endproc
  78              	.LFE4:
  79              		.size	Step_Timer_Stop, .-Step_Timer_Stop
  80              		.section	.text.Step_Timer_SetInterruptMode,"ax",%progbits
  81              		.align	2
  82              		.global	Step_Timer_SetInterruptMode
  83              		.code	16
  84              		.thumb_func
  85              		.type	Step_Timer_SetInterruptMode, %function
  86              	Step_Timer_SetInterruptMode:
  87              	.LFB5:
 221:Generated_Source\PSoC4/Step_Timer.c **** 
 222:Generated_Source\PSoC4/Step_Timer.c **** 
 223:Generated_Source\PSoC4/Step_Timer.c **** /*******************************************************************************
 224:Generated_Source\PSoC4/Step_Timer.c **** * Function Name: Step_Timer_SetInterruptMode
 225:Generated_Source\PSoC4/Step_Timer.c **** ********************************************************************************
 226:Generated_Source\PSoC4/Step_Timer.c **** * Summary:
 227:Generated_Source\PSoC4/Step_Timer.c **** * Configures which interrupt sources are enabled to generate the final interrupt
 228:Generated_Source\PSoC4/Step_Timer.c **** *
 229:Generated_Source\PSoC4/Step_Timer.c **** * Parameters:  
 230:Generated_Source\PSoC4/Step_Timer.c **** *  InterruptsMask: This parameter is an or'd collection of the status bits
 231:Generated_Source\PSoC4/Step_Timer.c **** *                   which will be allowed to generate the counters interrupt.   
 232:Generated_Source\PSoC4/Step_Timer.c **** *
 233:Generated_Source\PSoC4/Step_Timer.c **** * Return: 
 234:Generated_Source\PSoC4/Step_Timer.c **** *  void
 235:Generated_Source\PSoC4/Step_Timer.c **** *
 236:Generated_Source\PSoC4/Step_Timer.c **** *******************************************************************************/
 237:Generated_Source\PSoC4/Step_Timer.c **** void Step_Timer_SetInterruptMode(uint8 interruptsMask) 
 238:Generated_Source\PSoC4/Step_Timer.c **** {
  88              		.loc 1 238 0
  89              		.cfi_startproc
  90              		@ args = 0, pretend = 0, frame = 0
  91              		@ frame_needed = 0, uses_anonymous_args = 0
  92              		@ link register save eliminated.
  93              	.LVL0:
 239:Generated_Source\PSoC4/Step_Timer.c ****     Step_Timer_STATUS_MASK = interruptsMask;
  94              		.loc 1 239 0
  95 0000 014B     		ldr	r3, .L8
  96 0002 1870     		strb	r0, [r3]
 240:Generated_Source\PSoC4/Step_Timer.c **** }
  97              		.loc 1 240 0
  98              		@ sp needed
  99 0004 7047     		bx	lr
 100              	.L9:
 101 0006 C046     		.align	2
 102              	.L8:
ARM GAS  C:\Users\casey\AppData\Local\Temp\ccq1xv64.s 			page 7


 103 0008 86000F40 		.word	1074724998
 104              		.cfi_endproc
 105              	.LFE5:
 106              		.size	Step_Timer_SetInterruptMode, .-Step_Timer_SetInterruptMode
 107              		.section	.text.Step_Timer_ReadStatusRegister,"ax",%progbits
 108              		.align	2
 109              		.global	Step_Timer_ReadStatusRegister
 110              		.code	16
 111              		.thumb_func
 112              		.type	Step_Timer_ReadStatusRegister, %function
 113              	Step_Timer_ReadStatusRegister:
 114              	.LFB6:
 241:Generated_Source\PSoC4/Step_Timer.c **** 
 242:Generated_Source\PSoC4/Step_Timer.c **** 
 243:Generated_Source\PSoC4/Step_Timer.c **** /*******************************************************************************
 244:Generated_Source\PSoC4/Step_Timer.c **** * Function Name: Step_Timer_ReadStatusRegister
 245:Generated_Source\PSoC4/Step_Timer.c **** ********************************************************************************
 246:Generated_Source\PSoC4/Step_Timer.c **** * Summary:
 247:Generated_Source\PSoC4/Step_Timer.c **** *   Reads the status register and returns it's state. This function should use
 248:Generated_Source\PSoC4/Step_Timer.c **** *       defined types for the bit-field information as the bits in this
 249:Generated_Source\PSoC4/Step_Timer.c **** *       register may be permuteable.
 250:Generated_Source\PSoC4/Step_Timer.c **** *
 251:Generated_Source\PSoC4/Step_Timer.c **** * Parameters:  
 252:Generated_Source\PSoC4/Step_Timer.c **** *  void
 253:Generated_Source\PSoC4/Step_Timer.c **** *
 254:Generated_Source\PSoC4/Step_Timer.c **** * Return: 
 255:Generated_Source\PSoC4/Step_Timer.c **** *  (uint8) The contents of the status register
 256:Generated_Source\PSoC4/Step_Timer.c **** *
 257:Generated_Source\PSoC4/Step_Timer.c **** * Side Effects:
 258:Generated_Source\PSoC4/Step_Timer.c **** *   Status register bits may be clear on read. 
 259:Generated_Source\PSoC4/Step_Timer.c **** *
 260:Generated_Source\PSoC4/Step_Timer.c **** *******************************************************************************/
 261:Generated_Source\PSoC4/Step_Timer.c **** uint8   Step_Timer_ReadStatusRegister(void) 
 262:Generated_Source\PSoC4/Step_Timer.c **** {
 115              		.loc 1 262 0
 116              		.cfi_startproc
 117              		@ args = 0, pretend = 0, frame = 0
 118              		@ frame_needed = 0, uses_anonymous_args = 0
 119              		@ link register save eliminated.
 263:Generated_Source\PSoC4/Step_Timer.c ****     return Step_Timer_STATUS;
 120              		.loc 1 263 0
 121 0000 014B     		ldr	r3, .L11
 122 0002 1878     		ldrb	r0, [r3]
 123 0004 C0B2     		uxtb	r0, r0
 264:Generated_Source\PSoC4/Step_Timer.c **** }
 124              		.loc 1 264 0
 125              		@ sp needed
 126 0006 7047     		bx	lr
 127              	.L12:
 128              		.align	2
 129              	.L11:
 130 0008 66000F40 		.word	1074724966
 131              		.cfi_endproc
 132              	.LFE6:
 133              		.size	Step_Timer_ReadStatusRegister, .-Step_Timer_ReadStatusRegister
 134              		.section	.text.Step_Timer_ReadControlRegister,"ax",%progbits
 135              		.align	2
ARM GAS  C:\Users\casey\AppData\Local\Temp\ccq1xv64.s 			page 8


 136              		.global	Step_Timer_ReadControlRegister
 137              		.code	16
 138              		.thumb_func
 139              		.type	Step_Timer_ReadControlRegister, %function
 140              	Step_Timer_ReadControlRegister:
 141              	.LFB7:
 265:Generated_Source\PSoC4/Step_Timer.c **** 
 266:Generated_Source\PSoC4/Step_Timer.c **** 
 267:Generated_Source\PSoC4/Step_Timer.c **** #if(!Step_Timer_ControlRegRemoved)
 268:Generated_Source\PSoC4/Step_Timer.c **** /*******************************************************************************
 269:Generated_Source\PSoC4/Step_Timer.c **** * Function Name: Step_Timer_ReadControlRegister
 270:Generated_Source\PSoC4/Step_Timer.c **** ********************************************************************************
 271:Generated_Source\PSoC4/Step_Timer.c **** * Summary:
 272:Generated_Source\PSoC4/Step_Timer.c **** *   Reads the control register and returns it's state. This function should use
 273:Generated_Source\PSoC4/Step_Timer.c **** *       defined types for the bit-field information as the bits in this
 274:Generated_Source\PSoC4/Step_Timer.c **** *       register may be permuteable.
 275:Generated_Source\PSoC4/Step_Timer.c **** *
 276:Generated_Source\PSoC4/Step_Timer.c **** * Parameters:  
 277:Generated_Source\PSoC4/Step_Timer.c **** *  void
 278:Generated_Source\PSoC4/Step_Timer.c **** *
 279:Generated_Source\PSoC4/Step_Timer.c **** * Return: 
 280:Generated_Source\PSoC4/Step_Timer.c **** *  (uint8) The contents of the control register
 281:Generated_Source\PSoC4/Step_Timer.c **** *
 282:Generated_Source\PSoC4/Step_Timer.c **** *******************************************************************************/
 283:Generated_Source\PSoC4/Step_Timer.c **** uint8   Step_Timer_ReadControlRegister(void) 
 284:Generated_Source\PSoC4/Step_Timer.c **** {
 142              		.loc 1 284 0
 143              		.cfi_startproc
 144              		@ args = 0, pretend = 0, frame = 0
 145              		@ frame_needed = 0, uses_anonymous_args = 0
 146              		@ link register save eliminated.
 285:Generated_Source\PSoC4/Step_Timer.c ****     return Step_Timer_CONTROL;
 147              		.loc 1 285 0
 148 0000 014B     		ldr	r3, .L14
 149 0002 1878     		ldrb	r0, [r3]
 150 0004 C0B2     		uxtb	r0, r0
 286:Generated_Source\PSoC4/Step_Timer.c **** }
 151              		.loc 1 286 0
 152              		@ sp needed
 153 0006 7047     		bx	lr
 154              	.L15:
 155              		.align	2
 156              	.L14:
 157 0008 74000F40 		.word	1074724980
 158              		.cfi_endproc
 159              	.LFE7:
 160              		.size	Step_Timer_ReadControlRegister, .-Step_Timer_ReadControlRegister
 161              		.section	.text.Step_Timer_WriteControlRegister,"ax",%progbits
 162              		.align	2
 163              		.global	Step_Timer_WriteControlRegister
 164              		.code	16
 165              		.thumb_func
 166              		.type	Step_Timer_WriteControlRegister, %function
 167              	Step_Timer_WriteControlRegister:
 168              	.LFB8:
 287:Generated_Source\PSoC4/Step_Timer.c **** 
 288:Generated_Source\PSoC4/Step_Timer.c **** 
ARM GAS  C:\Users\casey\AppData\Local\Temp\ccq1xv64.s 			page 9


 289:Generated_Source\PSoC4/Step_Timer.c **** /*******************************************************************************
 290:Generated_Source\PSoC4/Step_Timer.c **** * Function Name: Step_Timer_WriteControlRegister
 291:Generated_Source\PSoC4/Step_Timer.c **** ********************************************************************************
 292:Generated_Source\PSoC4/Step_Timer.c **** * Summary:
 293:Generated_Source\PSoC4/Step_Timer.c **** *   Sets the bit-field of the control register.  This function should use
 294:Generated_Source\PSoC4/Step_Timer.c **** *       defined types for the bit-field information as the bits in this
 295:Generated_Source\PSoC4/Step_Timer.c **** *       register may be permuteable.
 296:Generated_Source\PSoC4/Step_Timer.c **** *
 297:Generated_Source\PSoC4/Step_Timer.c **** * Parameters:  
 298:Generated_Source\PSoC4/Step_Timer.c **** *  void
 299:Generated_Source\PSoC4/Step_Timer.c **** *
 300:Generated_Source\PSoC4/Step_Timer.c **** * Return: 
 301:Generated_Source\PSoC4/Step_Timer.c **** *  (uint8) The contents of the control register
 302:Generated_Source\PSoC4/Step_Timer.c **** *
 303:Generated_Source\PSoC4/Step_Timer.c **** *******************************************************************************/
 304:Generated_Source\PSoC4/Step_Timer.c **** void    Step_Timer_WriteControlRegister(uint8 control) 
 305:Generated_Source\PSoC4/Step_Timer.c **** {
 169              		.loc 1 305 0
 170              		.cfi_startproc
 171              		@ args = 0, pretend = 0, frame = 0
 172              		@ frame_needed = 0, uses_anonymous_args = 0
 173              		@ link register save eliminated.
 174              	.LVL1:
 306:Generated_Source\PSoC4/Step_Timer.c ****     Step_Timer_CONTROL = control;
 175              		.loc 1 306 0
 176 0000 014B     		ldr	r3, .L17
 177 0002 1870     		strb	r0, [r3]
 307:Generated_Source\PSoC4/Step_Timer.c **** }
 178              		.loc 1 307 0
 179              		@ sp needed
 180 0004 7047     		bx	lr
 181              	.L18:
 182 0006 C046     		.align	2
 183              	.L17:
 184 0008 74000F40 		.word	1074724980
 185              		.cfi_endproc
 186              	.LFE8:
 187              		.size	Step_Timer_WriteControlRegister, .-Step_Timer_WriteControlRegister
 188              		.section	.text.Step_Timer_WriteCounter,"ax",%progbits
 189              		.align	2
 190              		.global	Step_Timer_WriteCounter
 191              		.code	16
 192              		.thumb_func
 193              		.type	Step_Timer_WriteCounter, %function
 194              	Step_Timer_WriteCounter:
 195              	.LFB9:
 308:Generated_Source\PSoC4/Step_Timer.c **** 
 309:Generated_Source\PSoC4/Step_Timer.c **** #endif  /* (!Step_Timer_ControlRegRemoved) */
 310:Generated_Source\PSoC4/Step_Timer.c **** 
 311:Generated_Source\PSoC4/Step_Timer.c **** 
 312:Generated_Source\PSoC4/Step_Timer.c **** #if (!(Step_Timer_UsingFixedFunction && (CY_PSOC5A)))
 313:Generated_Source\PSoC4/Step_Timer.c **** /*******************************************************************************
 314:Generated_Source\PSoC4/Step_Timer.c **** * Function Name: Step_Timer_WriteCounter
 315:Generated_Source\PSoC4/Step_Timer.c **** ********************************************************************************
 316:Generated_Source\PSoC4/Step_Timer.c **** * Summary:
 317:Generated_Source\PSoC4/Step_Timer.c **** *   This funtion is used to set the counter to a specific value
 318:Generated_Source\PSoC4/Step_Timer.c **** *
ARM GAS  C:\Users\casey\AppData\Local\Temp\ccq1xv64.s 			page 10


 319:Generated_Source\PSoC4/Step_Timer.c **** * Parameters:  
 320:Generated_Source\PSoC4/Step_Timer.c **** *  counter:  New counter value. 
 321:Generated_Source\PSoC4/Step_Timer.c **** *
 322:Generated_Source\PSoC4/Step_Timer.c **** * Return: 
 323:Generated_Source\PSoC4/Step_Timer.c **** *  void 
 324:Generated_Source\PSoC4/Step_Timer.c **** *
 325:Generated_Source\PSoC4/Step_Timer.c **** *******************************************************************************/
 326:Generated_Source\PSoC4/Step_Timer.c **** void Step_Timer_WriteCounter(uint32 counter) \
 327:Generated_Source\PSoC4/Step_Timer.c ****                                    
 328:Generated_Source\PSoC4/Step_Timer.c **** {
 196              		.loc 1 328 0
 197              		.cfi_startproc
 198              		@ args = 0, pretend = 0, frame = 0
 199              		@ frame_needed = 0, uses_anonymous_args = 0
 200              	.LVL2:
 201 0000 10B5     		push	{r4, lr}
 202              		.cfi_def_cfa_offset 8
 203              		.cfi_offset 4, -8
 204              		.cfi_offset 14, -4
 205 0002 0100     		movs	r1, r0
 329:Generated_Source\PSoC4/Step_Timer.c ****     #if(Step_Timer_UsingFixedFunction)
 330:Generated_Source\PSoC4/Step_Timer.c ****         /* assert if block is already enabled */
 331:Generated_Source\PSoC4/Step_Timer.c ****         CYASSERT (0u == (Step_Timer_GLOBAL_ENABLE & Step_Timer_BLOCK_EN_MASK));
 332:Generated_Source\PSoC4/Step_Timer.c ****         /* If block is disabled, enable it and then write the counter */
 333:Generated_Source\PSoC4/Step_Timer.c ****         Step_Timer_GLOBAL_ENABLE |= Step_Timer_BLOCK_EN_MASK;
 334:Generated_Source\PSoC4/Step_Timer.c ****         CY_SET_REG16(Step_Timer_COUNTER_LSB_PTR, (uint16)counter);
 335:Generated_Source\PSoC4/Step_Timer.c ****         Step_Timer_GLOBAL_ENABLE &= ((uint8)(~Step_Timer_BLOCK_EN_MASK));
 336:Generated_Source\PSoC4/Step_Timer.c ****     #else
 337:Generated_Source\PSoC4/Step_Timer.c ****         CY_SET_REG24(Step_Timer_COUNTER_LSB_PTR, counter);
 206              		.loc 1 337 0
 207 0004 0148     		ldr	r0, .L20
 208              	.LVL3:
 209 0006 FFF7FEFF 		bl	CySetReg24
 210              	.LVL4:
 338:Generated_Source\PSoC4/Step_Timer.c ****     #endif /* (Step_Timer_UsingFixedFunction) */
 339:Generated_Source\PSoC4/Step_Timer.c **** }
 211              		.loc 1 339 0
 212              		@ sp needed
 213 000a 10BD     		pop	{r4, pc}
 214              	.L21:
 215              		.align	2
 216              	.L20:
 217 000c 04000F40 		.word	1074724868
 218              		.cfi_endproc
 219              	.LFE9:
 220              		.size	Step_Timer_WriteCounter, .-Step_Timer_WriteCounter
 221              		.section	.text.Step_Timer_ReadCounter,"ax",%progbits
 222              		.align	2
 223              		.global	Step_Timer_ReadCounter
 224              		.code	16
 225              		.thumb_func
 226              		.type	Step_Timer_ReadCounter, %function
 227              	Step_Timer_ReadCounter:
 228              	.LFB10:
 340:Generated_Source\PSoC4/Step_Timer.c **** #endif /* (!(Step_Timer_UsingFixedFunction && (CY_PSOC5A))) */
 341:Generated_Source\PSoC4/Step_Timer.c **** 
 342:Generated_Source\PSoC4/Step_Timer.c **** 
ARM GAS  C:\Users\casey\AppData\Local\Temp\ccq1xv64.s 			page 11


 343:Generated_Source\PSoC4/Step_Timer.c **** /*******************************************************************************
 344:Generated_Source\PSoC4/Step_Timer.c **** * Function Name: Step_Timer_ReadCounter
 345:Generated_Source\PSoC4/Step_Timer.c **** ********************************************************************************
 346:Generated_Source\PSoC4/Step_Timer.c **** * Summary:
 347:Generated_Source\PSoC4/Step_Timer.c **** * Returns the current value of the counter.  It doesn't matter
 348:Generated_Source\PSoC4/Step_Timer.c **** * if the counter is enabled or running.
 349:Generated_Source\PSoC4/Step_Timer.c **** *
 350:Generated_Source\PSoC4/Step_Timer.c **** * Parameters:  
 351:Generated_Source\PSoC4/Step_Timer.c **** *  void:  
 352:Generated_Source\PSoC4/Step_Timer.c **** *
 353:Generated_Source\PSoC4/Step_Timer.c **** * Return: 
 354:Generated_Source\PSoC4/Step_Timer.c **** *  (uint32) The present value of the counter.
 355:Generated_Source\PSoC4/Step_Timer.c **** *
 356:Generated_Source\PSoC4/Step_Timer.c **** *******************************************************************************/
 357:Generated_Source\PSoC4/Step_Timer.c **** uint32 Step_Timer_ReadCounter(void) 
 358:Generated_Source\PSoC4/Step_Timer.c **** {
 229              		.loc 1 358 0
 230              		.cfi_startproc
 231              		@ args = 0, pretend = 0, frame = 0
 232              		@ frame_needed = 0, uses_anonymous_args = 0
 233 0000 10B5     		push	{r4, lr}
 234              		.cfi_def_cfa_offset 8
 235              		.cfi_offset 4, -8
 236              		.cfi_offset 14, -4
 359:Generated_Source\PSoC4/Step_Timer.c ****     /* Force capture by reading Accumulator */
 360:Generated_Source\PSoC4/Step_Timer.c ****     /* Must first do a software capture to be able to read the counter */
 361:Generated_Source\PSoC4/Step_Timer.c ****     /* It is up to the user code to make sure there isn't already captured data in the FIFO */
 362:Generated_Source\PSoC4/Step_Timer.c ****     #if(Step_Timer_UsingFixedFunction)
 363:Generated_Source\PSoC4/Step_Timer.c **** 		(void)CY_GET_REG16(Step_Timer_COUNTER_LSB_PTR);
 364:Generated_Source\PSoC4/Step_Timer.c **** 	#else
 365:Generated_Source\PSoC4/Step_Timer.c **** 		(void)CY_GET_REG8(Step_Timer_COUNTER_LSB_PTR_8BIT);
 237              		.loc 1 365 0
 238 0002 034B     		ldr	r3, .L23
 239 0004 1B78     		ldrb	r3, [r3]
 366:Generated_Source\PSoC4/Step_Timer.c **** 	#endif/* (Step_Timer_UsingFixedFunction) */
 367:Generated_Source\PSoC4/Step_Timer.c ****     
 368:Generated_Source\PSoC4/Step_Timer.c ****     /* Read the data from the FIFO (or capture register for Fixed Function)*/
 369:Generated_Source\PSoC4/Step_Timer.c ****     #if(Step_Timer_UsingFixedFunction)
 370:Generated_Source\PSoC4/Step_Timer.c ****         return ((uint32)CY_GET_REG16(Step_Timer_STATICCOUNT_LSB_PTR));
 371:Generated_Source\PSoC4/Step_Timer.c ****     #else
 372:Generated_Source\PSoC4/Step_Timer.c ****         return (CY_GET_REG24(Step_Timer_STATICCOUNT_LSB_PTR));
 240              		.loc 1 372 0
 241 0006 0348     		ldr	r0, .L23+4
 242 0008 FFF7FEFF 		bl	CyGetReg24
 243              	.LVL5:
 373:Generated_Source\PSoC4/Step_Timer.c ****     #endif /* (Step_Timer_UsingFixedFunction) */
 374:Generated_Source\PSoC4/Step_Timer.c **** }
 244              		.loc 1 374 0
 245              		@ sp needed
 246 000c 10BD     		pop	{r4, pc}
 247              	.L24:
 248 000e C046     		.align	2
 249              	.L23:
 250 0010 04000F40 		.word	1074724868
 251 0014 44000F40 		.word	1074724932
 252              		.cfi_endproc
 253              	.LFE10:
ARM GAS  C:\Users\casey\AppData\Local\Temp\ccq1xv64.s 			page 12


 254              		.size	Step_Timer_ReadCounter, .-Step_Timer_ReadCounter
 255              		.section	.text.Step_Timer_ReadCapture,"ax",%progbits
 256              		.align	2
 257              		.global	Step_Timer_ReadCapture
 258              		.code	16
 259              		.thumb_func
 260              		.type	Step_Timer_ReadCapture, %function
 261              	Step_Timer_ReadCapture:
 262              	.LFB11:
 375:Generated_Source\PSoC4/Step_Timer.c **** 
 376:Generated_Source\PSoC4/Step_Timer.c **** 
 377:Generated_Source\PSoC4/Step_Timer.c **** /*******************************************************************************
 378:Generated_Source\PSoC4/Step_Timer.c **** * Function Name: Step_Timer_ReadCapture
 379:Generated_Source\PSoC4/Step_Timer.c **** ********************************************************************************
 380:Generated_Source\PSoC4/Step_Timer.c **** * Summary:
 381:Generated_Source\PSoC4/Step_Timer.c **** *   This function returns the last value captured.
 382:Generated_Source\PSoC4/Step_Timer.c **** *
 383:Generated_Source\PSoC4/Step_Timer.c **** * Parameters:  
 384:Generated_Source\PSoC4/Step_Timer.c **** *  void
 385:Generated_Source\PSoC4/Step_Timer.c **** *
 386:Generated_Source\PSoC4/Step_Timer.c **** * Return: 
 387:Generated_Source\PSoC4/Step_Timer.c **** *  (uint32) Present Capture value.
 388:Generated_Source\PSoC4/Step_Timer.c **** *
 389:Generated_Source\PSoC4/Step_Timer.c **** *******************************************************************************/
 390:Generated_Source\PSoC4/Step_Timer.c **** uint32 Step_Timer_ReadCapture(void) 
 391:Generated_Source\PSoC4/Step_Timer.c **** {
 263              		.loc 1 391 0
 264              		.cfi_startproc
 265              		@ args = 0, pretend = 0, frame = 0
 266              		@ frame_needed = 0, uses_anonymous_args = 0
 267 0000 10B5     		push	{r4, lr}
 268              		.cfi_def_cfa_offset 8
 269              		.cfi_offset 4, -8
 270              		.cfi_offset 14, -4
 392:Generated_Source\PSoC4/Step_Timer.c ****     #if(Step_Timer_UsingFixedFunction)
 393:Generated_Source\PSoC4/Step_Timer.c ****         return ((uint32)CY_GET_REG16(Step_Timer_STATICCOUNT_LSB_PTR));
 394:Generated_Source\PSoC4/Step_Timer.c ****     #else
 395:Generated_Source\PSoC4/Step_Timer.c ****         return (CY_GET_REG24(Step_Timer_STATICCOUNT_LSB_PTR));
 271              		.loc 1 395 0
 272 0002 0248     		ldr	r0, .L26
 273 0004 FFF7FEFF 		bl	CyGetReg24
 274              	.LVL6:
 396:Generated_Source\PSoC4/Step_Timer.c ****     #endif /* (Step_Timer_UsingFixedFunction) */
 397:Generated_Source\PSoC4/Step_Timer.c **** }
 275              		.loc 1 397 0
 276              		@ sp needed
 277 0008 10BD     		pop	{r4, pc}
 278              	.L27:
 279 000a C046     		.align	2
 280              	.L26:
 281 000c 44000F40 		.word	1074724932
 282              		.cfi_endproc
 283              	.LFE11:
 284              		.size	Step_Timer_ReadCapture, .-Step_Timer_ReadCapture
 285              		.section	.text.Step_Timer_WritePeriod,"ax",%progbits
 286              		.align	2
 287              		.global	Step_Timer_WritePeriod
ARM GAS  C:\Users\casey\AppData\Local\Temp\ccq1xv64.s 			page 13


 288              		.code	16
 289              		.thumb_func
 290              		.type	Step_Timer_WritePeriod, %function
 291              	Step_Timer_WritePeriod:
 292              	.LFB12:
 398:Generated_Source\PSoC4/Step_Timer.c **** 
 399:Generated_Source\PSoC4/Step_Timer.c **** 
 400:Generated_Source\PSoC4/Step_Timer.c **** /*******************************************************************************
 401:Generated_Source\PSoC4/Step_Timer.c **** * Function Name: Step_Timer_WritePeriod
 402:Generated_Source\PSoC4/Step_Timer.c **** ********************************************************************************
 403:Generated_Source\PSoC4/Step_Timer.c **** * Summary:
 404:Generated_Source\PSoC4/Step_Timer.c **** * Changes the period of the counter.  The new period 
 405:Generated_Source\PSoC4/Step_Timer.c **** * will be loaded the next time terminal count is detected.
 406:Generated_Source\PSoC4/Step_Timer.c **** *
 407:Generated_Source\PSoC4/Step_Timer.c **** * Parameters:  
 408:Generated_Source\PSoC4/Step_Timer.c **** *  period: (uint32) A value of 0 will result in
 409:Generated_Source\PSoC4/Step_Timer.c **** *         the counter remaining at zero.  
 410:Generated_Source\PSoC4/Step_Timer.c **** *
 411:Generated_Source\PSoC4/Step_Timer.c **** * Return: 
 412:Generated_Source\PSoC4/Step_Timer.c **** *  void
 413:Generated_Source\PSoC4/Step_Timer.c **** *
 414:Generated_Source\PSoC4/Step_Timer.c **** *******************************************************************************/
 415:Generated_Source\PSoC4/Step_Timer.c **** void Step_Timer_WritePeriod(uint32 period) 
 416:Generated_Source\PSoC4/Step_Timer.c **** {
 293              		.loc 1 416 0
 294              		.cfi_startproc
 295              		@ args = 0, pretend = 0, frame = 0
 296              		@ frame_needed = 0, uses_anonymous_args = 0
 297              	.LVL7:
 298 0000 10B5     		push	{r4, lr}
 299              		.cfi_def_cfa_offset 8
 300              		.cfi_offset 4, -8
 301              		.cfi_offset 14, -4
 302 0002 0100     		movs	r1, r0
 417:Generated_Source\PSoC4/Step_Timer.c ****     #if(Step_Timer_UsingFixedFunction)
 418:Generated_Source\PSoC4/Step_Timer.c ****         CY_SET_REG16(Step_Timer_PERIOD_LSB_PTR,(uint16)period);
 419:Generated_Source\PSoC4/Step_Timer.c ****     #else
 420:Generated_Source\PSoC4/Step_Timer.c ****         CY_SET_REG24(Step_Timer_PERIOD_LSB_PTR, period);
 303              		.loc 1 420 0
 304 0004 0148     		ldr	r0, .L29
 305              	.LVL8:
 306 0006 FFF7FEFF 		bl	CySetReg24
 307              	.LVL9:
 421:Generated_Source\PSoC4/Step_Timer.c ****     #endif /* (Step_Timer_UsingFixedFunction) */
 422:Generated_Source\PSoC4/Step_Timer.c **** }
 308              		.loc 1 422 0
 309              		@ sp needed
 310 000a 10BD     		pop	{r4, pc}
 311              	.L30:
 312              		.align	2
 313              	.L29:
 314 000c 24000F40 		.word	1074724900
 315              		.cfi_endproc
 316              	.LFE12:
 317              		.size	Step_Timer_WritePeriod, .-Step_Timer_WritePeriod
 318              		.section	.text.Step_Timer_ReadPeriod,"ax",%progbits
 319              		.align	2
ARM GAS  C:\Users\casey\AppData\Local\Temp\ccq1xv64.s 			page 14


 320              		.global	Step_Timer_ReadPeriod
 321              		.code	16
 322              		.thumb_func
 323              		.type	Step_Timer_ReadPeriod, %function
 324              	Step_Timer_ReadPeriod:
 325              	.LFB13:
 423:Generated_Source\PSoC4/Step_Timer.c **** 
 424:Generated_Source\PSoC4/Step_Timer.c **** 
 425:Generated_Source\PSoC4/Step_Timer.c **** /*******************************************************************************
 426:Generated_Source\PSoC4/Step_Timer.c **** * Function Name: Step_Timer_ReadPeriod
 427:Generated_Source\PSoC4/Step_Timer.c **** ********************************************************************************
 428:Generated_Source\PSoC4/Step_Timer.c **** * Summary:
 429:Generated_Source\PSoC4/Step_Timer.c **** * Reads the current period value without affecting counter operation.
 430:Generated_Source\PSoC4/Step_Timer.c **** *
 431:Generated_Source\PSoC4/Step_Timer.c **** * Parameters:  
 432:Generated_Source\PSoC4/Step_Timer.c **** *  void:  
 433:Generated_Source\PSoC4/Step_Timer.c **** *
 434:Generated_Source\PSoC4/Step_Timer.c **** * Return: 
 435:Generated_Source\PSoC4/Step_Timer.c **** *  (uint32) Present period value.
 436:Generated_Source\PSoC4/Step_Timer.c **** *
 437:Generated_Source\PSoC4/Step_Timer.c **** *******************************************************************************/
 438:Generated_Source\PSoC4/Step_Timer.c **** uint32 Step_Timer_ReadPeriod(void) 
 439:Generated_Source\PSoC4/Step_Timer.c **** {
 326              		.loc 1 439 0
 327              		.cfi_startproc
 328              		@ args = 0, pretend = 0, frame = 0
 329              		@ frame_needed = 0, uses_anonymous_args = 0
 330 0000 10B5     		push	{r4, lr}
 331              		.cfi_def_cfa_offset 8
 332              		.cfi_offset 4, -8
 333              		.cfi_offset 14, -4
 440:Generated_Source\PSoC4/Step_Timer.c ****     #if(Step_Timer_UsingFixedFunction)
 441:Generated_Source\PSoC4/Step_Timer.c ****         return ((uint32)CY_GET_REG16(Step_Timer_PERIOD_LSB_PTR));
 442:Generated_Source\PSoC4/Step_Timer.c ****     #else
 443:Generated_Source\PSoC4/Step_Timer.c ****         return (CY_GET_REG24(Step_Timer_PERIOD_LSB_PTR));
 334              		.loc 1 443 0
 335 0002 0248     		ldr	r0, .L32
 336 0004 FFF7FEFF 		bl	CyGetReg24
 337              	.LVL10:
 444:Generated_Source\PSoC4/Step_Timer.c ****     #endif /* (Step_Timer_UsingFixedFunction) */
 445:Generated_Source\PSoC4/Step_Timer.c **** }
 338              		.loc 1 445 0
 339              		@ sp needed
 340 0008 10BD     		pop	{r4, pc}
 341              	.L33:
 342 000a C046     		.align	2
 343              	.L32:
 344 000c 24000F40 		.word	1074724900
 345              		.cfi_endproc
 346              	.LFE13:
 347              		.size	Step_Timer_ReadPeriod, .-Step_Timer_ReadPeriod
 348              		.section	.text.Step_Timer_WriteCompare,"ax",%progbits
 349              		.align	2
 350              		.global	Step_Timer_WriteCompare
 351              		.code	16
 352              		.thumb_func
 353              		.type	Step_Timer_WriteCompare, %function
ARM GAS  C:\Users\casey\AppData\Local\Temp\ccq1xv64.s 			page 15


 354              	Step_Timer_WriteCompare:
 355              	.LFB14:
 446:Generated_Source\PSoC4/Step_Timer.c **** 
 447:Generated_Source\PSoC4/Step_Timer.c **** 
 448:Generated_Source\PSoC4/Step_Timer.c **** #if (!Step_Timer_UsingFixedFunction)
 449:Generated_Source\PSoC4/Step_Timer.c **** /*******************************************************************************
 450:Generated_Source\PSoC4/Step_Timer.c **** * Function Name: Step_Timer_WriteCompare
 451:Generated_Source\PSoC4/Step_Timer.c **** ********************************************************************************
 452:Generated_Source\PSoC4/Step_Timer.c **** * Summary:
 453:Generated_Source\PSoC4/Step_Timer.c **** * Changes the compare value.  The compare output will 
 454:Generated_Source\PSoC4/Step_Timer.c **** * reflect the new value on the next UDB clock.  The compare output will be 
 455:Generated_Source\PSoC4/Step_Timer.c **** * driven high when the present counter value compares true based on the 
 456:Generated_Source\PSoC4/Step_Timer.c **** * configured compare mode setting. 
 457:Generated_Source\PSoC4/Step_Timer.c **** *
 458:Generated_Source\PSoC4/Step_Timer.c **** * Parameters:  
 459:Generated_Source\PSoC4/Step_Timer.c **** *  Compare:  New compare value. 
 460:Generated_Source\PSoC4/Step_Timer.c **** *
 461:Generated_Source\PSoC4/Step_Timer.c **** * Return: 
 462:Generated_Source\PSoC4/Step_Timer.c **** *  void
 463:Generated_Source\PSoC4/Step_Timer.c **** *
 464:Generated_Source\PSoC4/Step_Timer.c **** *******************************************************************************/
 465:Generated_Source\PSoC4/Step_Timer.c **** void Step_Timer_WriteCompare(uint32 compare) \
 466:Generated_Source\PSoC4/Step_Timer.c ****                                    
 467:Generated_Source\PSoC4/Step_Timer.c **** {
 356              		.loc 1 467 0
 357              		.cfi_startproc
 358              		@ args = 0, pretend = 0, frame = 0
 359              		@ frame_needed = 0, uses_anonymous_args = 0
 360              	.LVL11:
 361 0000 10B5     		push	{r4, lr}
 362              		.cfi_def_cfa_offset 8
 363              		.cfi_offset 4, -8
 364              		.cfi_offset 14, -4
 365 0002 0100     		movs	r1, r0
 468:Generated_Source\PSoC4/Step_Timer.c ****     #if(Step_Timer_UsingFixedFunction)
 469:Generated_Source\PSoC4/Step_Timer.c ****         CY_SET_REG16(Step_Timer_COMPARE_LSB_PTR, (uint16)compare);
 470:Generated_Source\PSoC4/Step_Timer.c ****     #else
 471:Generated_Source\PSoC4/Step_Timer.c ****         CY_SET_REG24(Step_Timer_COMPARE_LSB_PTR, compare);
 366              		.loc 1 471 0
 367 0004 0148     		ldr	r0, .L35
 368              	.LVL12:
 369 0006 FFF7FEFF 		bl	CySetReg24
 370              	.LVL13:
 472:Generated_Source\PSoC4/Step_Timer.c ****     #endif /* (Step_Timer_UsingFixedFunction) */
 473:Generated_Source\PSoC4/Step_Timer.c **** }
 371              		.loc 1 473 0
 372              		@ sp needed
 373 000a 10BD     		pop	{r4, pc}
 374              	.L36:
 375              		.align	2
 376              	.L35:
 377 000c 34000F40 		.word	1074724916
 378              		.cfi_endproc
 379              	.LFE14:
 380              		.size	Step_Timer_WriteCompare, .-Step_Timer_WriteCompare
 381              		.section	.text.Step_Timer_ReadCompare,"ax",%progbits
 382              		.align	2
ARM GAS  C:\Users\casey\AppData\Local\Temp\ccq1xv64.s 			page 16


 383              		.global	Step_Timer_ReadCompare
 384              		.code	16
 385              		.thumb_func
 386              		.type	Step_Timer_ReadCompare, %function
 387              	Step_Timer_ReadCompare:
 388              	.LFB15:
 474:Generated_Source\PSoC4/Step_Timer.c **** 
 475:Generated_Source\PSoC4/Step_Timer.c **** 
 476:Generated_Source\PSoC4/Step_Timer.c **** /*******************************************************************************
 477:Generated_Source\PSoC4/Step_Timer.c **** * Function Name: Step_Timer_ReadCompare
 478:Generated_Source\PSoC4/Step_Timer.c **** ********************************************************************************
 479:Generated_Source\PSoC4/Step_Timer.c **** * Summary:
 480:Generated_Source\PSoC4/Step_Timer.c **** * Returns the compare value.
 481:Generated_Source\PSoC4/Step_Timer.c **** *
 482:Generated_Source\PSoC4/Step_Timer.c **** * Parameters:  
 483:Generated_Source\PSoC4/Step_Timer.c **** *  void:
 484:Generated_Source\PSoC4/Step_Timer.c **** *
 485:Generated_Source\PSoC4/Step_Timer.c **** * Return: 
 486:Generated_Source\PSoC4/Step_Timer.c **** *  (uint32) Present compare value.
 487:Generated_Source\PSoC4/Step_Timer.c **** *
 488:Generated_Source\PSoC4/Step_Timer.c **** *******************************************************************************/
 489:Generated_Source\PSoC4/Step_Timer.c **** uint32 Step_Timer_ReadCompare(void) 
 490:Generated_Source\PSoC4/Step_Timer.c **** {
 389              		.loc 1 490 0
 390              		.cfi_startproc
 391              		@ args = 0, pretend = 0, frame = 0
 392              		@ frame_needed = 0, uses_anonymous_args = 0
 393 0000 10B5     		push	{r4, lr}
 394              		.cfi_def_cfa_offset 8
 395              		.cfi_offset 4, -8
 396              		.cfi_offset 14, -4
 491:Generated_Source\PSoC4/Step_Timer.c ****     return (CY_GET_REG24(Step_Timer_COMPARE_LSB_PTR));
 397              		.loc 1 491 0
 398 0002 0248     		ldr	r0, .L38
 399 0004 FFF7FEFF 		bl	CyGetReg24
 400              	.LVL14:
 492:Generated_Source\PSoC4/Step_Timer.c **** }
 401              		.loc 1 492 0
 402              		@ sp needed
 403 0008 10BD     		pop	{r4, pc}
 404              	.L39:
 405 000a C046     		.align	2
 406              	.L38:
 407 000c 34000F40 		.word	1074724916
 408              		.cfi_endproc
 409              	.LFE15:
 410              		.size	Step_Timer_ReadCompare, .-Step_Timer_ReadCompare
 411              		.section	.text.Step_Timer_ClearFIFO,"ax",%progbits
 412              		.align	2
 413              		.global	Step_Timer_ClearFIFO
 414              		.code	16
 415              		.thumb_func
 416              		.type	Step_Timer_ClearFIFO, %function
 417              	Step_Timer_ClearFIFO:
 418              	.LFB16:
 493:Generated_Source\PSoC4/Step_Timer.c **** 
 494:Generated_Source\PSoC4/Step_Timer.c **** 
ARM GAS  C:\Users\casey\AppData\Local\Temp\ccq1xv64.s 			page 17


 495:Generated_Source\PSoC4/Step_Timer.c **** #if (Step_Timer_COMPARE_MODE_SOFTWARE)
 496:Generated_Source\PSoC4/Step_Timer.c **** /*******************************************************************************
 497:Generated_Source\PSoC4/Step_Timer.c **** * Function Name: Step_Timer_SetCompareMode
 498:Generated_Source\PSoC4/Step_Timer.c **** ********************************************************************************
 499:Generated_Source\PSoC4/Step_Timer.c **** * Summary:
 500:Generated_Source\PSoC4/Step_Timer.c **** *  Sets the software controlled Compare Mode.
 501:Generated_Source\PSoC4/Step_Timer.c **** *
 502:Generated_Source\PSoC4/Step_Timer.c **** * Parameters:
 503:Generated_Source\PSoC4/Step_Timer.c **** *  compareMode:  Compare Mode Enumerated Type.
 504:Generated_Source\PSoC4/Step_Timer.c **** *
 505:Generated_Source\PSoC4/Step_Timer.c **** * Return:
 506:Generated_Source\PSoC4/Step_Timer.c **** *  void
 507:Generated_Source\PSoC4/Step_Timer.c **** *
 508:Generated_Source\PSoC4/Step_Timer.c **** *******************************************************************************/
 509:Generated_Source\PSoC4/Step_Timer.c **** void Step_Timer_SetCompareMode(uint8 compareMode) 
 510:Generated_Source\PSoC4/Step_Timer.c **** {
 511:Generated_Source\PSoC4/Step_Timer.c ****     /* Clear the compare mode bits in the control register */
 512:Generated_Source\PSoC4/Step_Timer.c ****     Step_Timer_CONTROL &= ((uint8)(~Step_Timer_CTRL_CMPMODE_MASK));
 513:Generated_Source\PSoC4/Step_Timer.c ****     
 514:Generated_Source\PSoC4/Step_Timer.c ****     /* Write the new setting */
 515:Generated_Source\PSoC4/Step_Timer.c ****     Step_Timer_CONTROL |= compareMode;
 516:Generated_Source\PSoC4/Step_Timer.c **** }
 517:Generated_Source\PSoC4/Step_Timer.c **** #endif  /* (Step_Timer_COMPARE_MODE_SOFTWARE) */
 518:Generated_Source\PSoC4/Step_Timer.c **** 
 519:Generated_Source\PSoC4/Step_Timer.c **** 
 520:Generated_Source\PSoC4/Step_Timer.c **** #if (Step_Timer_CAPTURE_MODE_SOFTWARE)
 521:Generated_Source\PSoC4/Step_Timer.c **** /*******************************************************************************
 522:Generated_Source\PSoC4/Step_Timer.c **** * Function Name: Step_Timer_SetCaptureMode
 523:Generated_Source\PSoC4/Step_Timer.c **** ********************************************************************************
 524:Generated_Source\PSoC4/Step_Timer.c **** * Summary:
 525:Generated_Source\PSoC4/Step_Timer.c **** *  Sets the software controlled Capture Mode.
 526:Generated_Source\PSoC4/Step_Timer.c **** *
 527:Generated_Source\PSoC4/Step_Timer.c **** * Parameters:
 528:Generated_Source\PSoC4/Step_Timer.c **** *  captureMode:  Capture Mode Enumerated Type.
 529:Generated_Source\PSoC4/Step_Timer.c **** *
 530:Generated_Source\PSoC4/Step_Timer.c **** * Return:
 531:Generated_Source\PSoC4/Step_Timer.c **** *  void
 532:Generated_Source\PSoC4/Step_Timer.c **** *
 533:Generated_Source\PSoC4/Step_Timer.c **** *******************************************************************************/
 534:Generated_Source\PSoC4/Step_Timer.c **** void Step_Timer_SetCaptureMode(uint8 captureMode) 
 535:Generated_Source\PSoC4/Step_Timer.c **** {
 536:Generated_Source\PSoC4/Step_Timer.c ****     /* Clear the capture mode bits in the control register */
 537:Generated_Source\PSoC4/Step_Timer.c ****     Step_Timer_CONTROL &= ((uint8)(~Step_Timer_CTRL_CAPMODE_MASK));
 538:Generated_Source\PSoC4/Step_Timer.c ****     
 539:Generated_Source\PSoC4/Step_Timer.c ****     /* Write the new setting */
 540:Generated_Source\PSoC4/Step_Timer.c ****     Step_Timer_CONTROL |= ((uint8)((uint8)captureMode << Step_Timer_CTRL_CAPMODE0_SHIFT));
 541:Generated_Source\PSoC4/Step_Timer.c **** }
 542:Generated_Source\PSoC4/Step_Timer.c **** #endif  /* (Step_Timer_CAPTURE_MODE_SOFTWARE) */
 543:Generated_Source\PSoC4/Step_Timer.c **** 
 544:Generated_Source\PSoC4/Step_Timer.c **** 
 545:Generated_Source\PSoC4/Step_Timer.c **** /*******************************************************************************
 546:Generated_Source\PSoC4/Step_Timer.c **** * Function Name: Step_Timer_ClearFIFO
 547:Generated_Source\PSoC4/Step_Timer.c **** ********************************************************************************
 548:Generated_Source\PSoC4/Step_Timer.c **** * Summary:
 549:Generated_Source\PSoC4/Step_Timer.c **** *   This function clears all capture data from the capture FIFO
 550:Generated_Source\PSoC4/Step_Timer.c **** *
 551:Generated_Source\PSoC4/Step_Timer.c **** * Parameters:  
ARM GAS  C:\Users\casey\AppData\Local\Temp\ccq1xv64.s 			page 18


 552:Generated_Source\PSoC4/Step_Timer.c **** *  void:
 553:Generated_Source\PSoC4/Step_Timer.c **** *
 554:Generated_Source\PSoC4/Step_Timer.c **** * Return: 
 555:Generated_Source\PSoC4/Step_Timer.c **** *  None
 556:Generated_Source\PSoC4/Step_Timer.c **** *
 557:Generated_Source\PSoC4/Step_Timer.c **** *******************************************************************************/
 558:Generated_Source\PSoC4/Step_Timer.c **** void Step_Timer_ClearFIFO(void) 
 559:Generated_Source\PSoC4/Step_Timer.c **** {
 419              		.loc 1 559 0
 420              		.cfi_startproc
 421              		@ args = 0, pretend = 0, frame = 0
 422              		@ frame_needed = 0, uses_anonymous_args = 0
 423 0000 10B5     		push	{r4, lr}
 424              		.cfi_def_cfa_offset 8
 425              		.cfi_offset 4, -8
 426              		.cfi_offset 14, -4
 560:Generated_Source\PSoC4/Step_Timer.c **** 
 561:Generated_Source\PSoC4/Step_Timer.c ****     while(0u != (Step_Timer_ReadStatusRegister() & Step_Timer_STATUS_FIFONEMP))
 427              		.loc 1 561 0
 428 0002 01E0     		b	.L41
 429              	.L42:
 562:Generated_Source\PSoC4/Step_Timer.c ****     {
 563:Generated_Source\PSoC4/Step_Timer.c ****         (void)Step_Timer_ReadCapture();
 430              		.loc 1 563 0
 431 0004 FFF7FEFF 		bl	Step_Timer_ReadCapture
 432              	.LVL15:
 433              	.L41:
 561:Generated_Source\PSoC4/Step_Timer.c ****     {
 434              		.loc 1 561 0
 435 0008 FFF7FEFF 		bl	Step_Timer_ReadStatusRegister
 436              	.LVL16:
 437 000c 4306     		lsls	r3, r0, #25
 438 000e F9D4     		bmi	.L42
 564:Generated_Source\PSoC4/Step_Timer.c ****     }
 565:Generated_Source\PSoC4/Step_Timer.c **** 
 566:Generated_Source\PSoC4/Step_Timer.c **** }
 439              		.loc 1 566 0
 440              		@ sp needed
 441 0010 10BD     		pop	{r4, pc}
 442              		.cfi_endproc
 443              	.LFE16:
 444              		.size	Step_Timer_ClearFIFO, .-Step_Timer_ClearFIFO
 445 0012 C046     		.section	.text.Step_Timer_Init,"ax",%progbits
 446              		.align	2
 447              		.global	Step_Timer_Init
 448              		.code	16
 449              		.thumb_func
 450              		.type	Step_Timer_Init, %function
 451              	Step_Timer_Init:
 452              	.LFB1:
  38:Generated_Source\PSoC4/Step_Timer.c ****         #if (!Step_Timer_UsingFixedFunction && !Step_Timer_ControlRegRemoved)
 453              		.loc 1 38 0
 454              		.cfi_startproc
 455              		@ args = 0, pretend = 0, frame = 0
 456              		@ frame_needed = 0, uses_anonymous_args = 0
 457 0000 10B5     		push	{r4, lr}
 458              		.cfi_def_cfa_offset 8
ARM GAS  C:\Users\casey\AppData\Local\Temp\ccq1xv64.s 			page 19


 459              		.cfi_offset 4, -8
 460              		.cfi_offset 14, -4
  79:Generated_Source\PSoC4/Step_Timer.c ****             Step_Timer_CONTROL = ctrl | Step_Timer_DEFAULT_COMPARE_MODE;
 461              		.loc 1 79 0
 462 0002 1349     		ldr	r1, .L44
 463 0004 0B78     		ldrb	r3, [r1]
 464 0006 0722     		movs	r2, #7
 465 0008 9343     		bics	r3, r2
 466              	.LVL17:
  80:Generated_Source\PSoC4/Step_Timer.c ****             
 467              		.loc 1 80 0
 468 000a 0122     		movs	r2, #1
 469 000c 1343     		orrs	r3, r2
 470              	.LVL18:
 471 000e DBB2     		uxtb	r3, r3
 472 0010 0B70     		strb	r3, [r1]
  83:Generated_Source\PSoC4/Step_Timer.c ****             
 473              		.loc 1 83 0
 474 0012 0B78     		ldrb	r3, [r1]
 475 0014 0322     		movs	r2, #3
 476 0016 9343     		bics	r3, r2
 477              	.LVL19:
  88:Generated_Source\PSoC4/Step_Timer.c ****             #endif /* 0 != Step_Timer_CAPTURE_MODE */ 
 478              		.loc 1 88 0
 479 0018 0B70     		strb	r3, [r1]
  96:Generated_Source\PSoC4/Step_Timer.c ****         #endif /* (!Step_Timer_UsingFixedFunction) */
 480              		.loc 1 96 0
 481 001a FFF7FEFF 		bl	Step_Timer_ClearFIFO
 482              	.LVL20:
 100:Generated_Source\PSoC4/Step_Timer.c ****         #if (!(Step_Timer_UsingFixedFunction && (CY_PSOC5A)))
 483              		.loc 1 100 0
 484 001e 0D48     		ldr	r0, .L44+4
 485 0020 FFF7FEFF 		bl	Step_Timer_WritePeriod
 486              	.LVL21:
 102:Generated_Source\PSoC4/Step_Timer.c ****         #endif /* (!(Step_Timer_UsingFixedFunction && (CY_PSOC5A))) */
 487              		.loc 1 102 0
 488 0024 0020     		movs	r0, #0
 489 0026 FFF7FEFF 		bl	Step_Timer_WriteCounter
 490              	.LVL22:
 104:Generated_Source\PSoC4/Step_Timer.c ****         
 491              		.loc 1 104 0
 492 002a 0020     		movs	r0, #0
 493 002c FFF7FEFF 		bl	Step_Timer_SetInterruptMode
 494              	.LVL23:
 108:Generated_Source\PSoC4/Step_Timer.c ****             /* Set the compare value (only available to non-fixed function implementation */
 495              		.loc 1 108 0
 496 0030 FFF7FEFF 		bl	Step_Timer_ReadStatusRegister
 497              	.LVL24:
 110:Generated_Source\PSoC4/Step_Timer.c ****             /* Use the interrupt output of the status register for IRQ output */
 498              		.loc 1 110 0
 499 0034 6420     		movs	r0, #100
 500 0036 FFF7FEFF 		bl	Step_Timer_WriteCompare
 501              	.LVL25:
 115:Generated_Source\PSoC4/Step_Timer.c ****             
 502              		.loc 1 115 0
 503 003a FFF7FEFF 		bl	CyEnterCriticalSection
 504              	.LVL26:
ARM GAS  C:\Users\casey\AppData\Local\Temp\ccq1xv64.s 			page 20


 117:Generated_Source\PSoC4/Step_Timer.c ****             
 505              		.loc 1 117 0
 506 003e 064A     		ldr	r2, .L44+8
 507 0040 1178     		ldrb	r1, [r2]
 508 0042 1023     		movs	r3, #16
 509 0044 0B43     		orrs	r3, r1
 510 0046 DBB2     		uxtb	r3, r3
 511 0048 1370     		strb	r3, [r2]
 120:Generated_Source\PSoC4/Step_Timer.c ****             
 512              		.loc 1 120 0
 513 004a FFF7FEFF 		bl	CyExitCriticalSection
 514              	.LVL27:
 123:Generated_Source\PSoC4/Step_Timer.c **** 
 515              		.loc 1 123 0
 516              		@ sp needed
 517 004e 10BD     		pop	{r4, pc}
 518              	.L45:
 519              		.align	2
 520              	.L44:
 521 0050 74000F40 		.word	1074724980
 522 0054 FEFFFF00 		.word	16777214
 523 0058 96000F40 		.word	1074725014
 524              		.cfi_endproc
 525              	.LFE1:
 526              		.size	Step_Timer_Init, .-Step_Timer_Init
 527              		.section	.text.Step_Timer_Start,"ax",%progbits
 528              		.align	2
 529              		.global	Step_Timer_Start
 530              		.code	16
 531              		.thumb_func
 532              		.type	Step_Timer_Start, %function
 533              	Step_Timer_Start:
 534              	.LFB3:
 179:Generated_Source\PSoC4/Step_Timer.c ****     if(Step_Timer_initVar == 0u)
 535              		.loc 1 179 0
 536              		.cfi_startproc
 537              		@ args = 0, pretend = 0, frame = 0
 538              		@ frame_needed = 0, uses_anonymous_args = 0
 539 0000 10B5     		push	{r4, lr}
 540              		.cfi_def_cfa_offset 8
 541              		.cfi_offset 4, -8
 542              		.cfi_offset 14, -4
 180:Generated_Source\PSoC4/Step_Timer.c ****     {
 543              		.loc 1 180 0
 544 0002 064B     		ldr	r3, .L48
 545 0004 1B78     		ldrb	r3, [r3]
 546 0006 002B     		cmp	r3, #0
 547 0008 04D1     		bne	.L47
 182:Generated_Source\PSoC4/Step_Timer.c ****         
 548              		.loc 1 182 0
 549 000a FFF7FEFF 		bl	Step_Timer_Init
 550              	.LVL28:
 184:Generated_Source\PSoC4/Step_Timer.c ****     }
 551              		.loc 1 184 0
 552 000e 0122     		movs	r2, #1
 553 0010 024B     		ldr	r3, .L48
 554 0012 1A70     		strb	r2, [r3]
ARM GAS  C:\Users\casey\AppData\Local\Temp\ccq1xv64.s 			page 21


 555              	.L47:
 188:Generated_Source\PSoC4/Step_Timer.c **** }
 556              		.loc 1 188 0
 557 0014 FFF7FEFF 		bl	Step_Timer_Enable
 558              	.LVL29:
 189:Generated_Source\PSoC4/Step_Timer.c **** 
 559              		.loc 1 189 0
 560              		@ sp needed
 561 0018 10BD     		pop	{r4, pc}
 562              	.L49:
 563 001a C046     		.align	2
 564              	.L48:
 565 001c 00000000 		.word	.LANCHOR0
 566              		.cfi_endproc
 567              	.LFE3:
 568              		.size	Step_Timer_Start, .-Step_Timer_Start
 569              		.global	Step_Timer_initVar
 570              		.bss
 571              		.set	.LANCHOR0,. + 0
 572              		.type	Step_Timer_initVar, %object
 573              		.size	Step_Timer_initVar, 1
 574              	Step_Timer_initVar:
 575 0000 00       		.space	1
 576              		.text
 577              	.Letext0:
 578              		.file 2 "Generated_Source\\PSoC4\\cytypes.h"
 579              		.file 3 "Generated_Source\\PSoC4\\CyLib.h"