ARM GAS  C:\Users\casey\AppData\Local\Temp\ccgNvjL5.s 			page 1


   1              		.syntax unified
   2              		.cpu cortex-m0
   3              		.fpu softvfp
   4              		.eabi_attribute 20, 1
   5              		.eabi_attribute 21, 1
   6              		.eabi_attribute 23, 3
   7              		.eabi_attribute 24, 1
   8              		.eabi_attribute 25, 1
   9              		.eabi_attribute 26, 1
  10              		.eabi_attribute 30, 1
  11              		.eabi_attribute 34, 0
  12              		.eabi_attribute 18, 4
  13              		.thumb
  14              		.syntax unified
  15              		.file	"Step_Counter.c"
  16              		.text
  17              	.Ltext0:
  18              		.cfi_sections	.debug_frame
  19              		.section	.text.Step_Counter_Enable,"ax",%progbits
  20              		.align	2
  21              		.global	Step_Counter_Enable
  22              		.code	16
  23              		.thumb_func
  24              		.type	Step_Counter_Enable, %function
  25              	Step_Counter_Enable:
  26              	.LFB2:
  27              		.file 1 "Generated_Source\\PSoC4\\Step_Counter.c"
   1:Generated_Source\PSoC4/Step_Counter.c **** /*******************************************************************************
   2:Generated_Source\PSoC4/Step_Counter.c **** * File Name: Step_Counter.c  
   3:Generated_Source\PSoC4/Step_Counter.c **** * Version 3.0
   4:Generated_Source\PSoC4/Step_Counter.c **** *
   5:Generated_Source\PSoC4/Step_Counter.c **** *  Description:
   6:Generated_Source\PSoC4/Step_Counter.c **** *     The Counter component consists of a 8, 16, 24 or 32-bit counter with
   7:Generated_Source\PSoC4/Step_Counter.c **** *     a selectable period between 2 and 2^Width - 1.  
   8:Generated_Source\PSoC4/Step_Counter.c **** *
   9:Generated_Source\PSoC4/Step_Counter.c **** *   Note:
  10:Generated_Source\PSoC4/Step_Counter.c **** *     None
  11:Generated_Source\PSoC4/Step_Counter.c **** *
  12:Generated_Source\PSoC4/Step_Counter.c **** ********************************************************************************
  13:Generated_Source\PSoC4/Step_Counter.c **** * Copyright 2008-2012, Cypress Semiconductor Corporation.  All rights reserved.
  14:Generated_Source\PSoC4/Step_Counter.c **** * You may use this file only in accordance with the license, terms, conditions, 
  15:Generated_Source\PSoC4/Step_Counter.c **** * disclaimers, and limitations in the end user license agreement accompanying 
  16:Generated_Source\PSoC4/Step_Counter.c **** * the software package with which this file was provided.
  17:Generated_Source\PSoC4/Step_Counter.c **** *******************************************************************************/
  18:Generated_Source\PSoC4/Step_Counter.c **** 
  19:Generated_Source\PSoC4/Step_Counter.c **** #include "Step_Counter.h"
  20:Generated_Source\PSoC4/Step_Counter.c **** 
  21:Generated_Source\PSoC4/Step_Counter.c **** uint8 Step_Counter_initVar = 0u;
  22:Generated_Source\PSoC4/Step_Counter.c **** 
  23:Generated_Source\PSoC4/Step_Counter.c **** 
  24:Generated_Source\PSoC4/Step_Counter.c **** /*******************************************************************************
  25:Generated_Source\PSoC4/Step_Counter.c **** * Function Name: Step_Counter_Init
  26:Generated_Source\PSoC4/Step_Counter.c **** ********************************************************************************
  27:Generated_Source\PSoC4/Step_Counter.c **** * Summary:
  28:Generated_Source\PSoC4/Step_Counter.c **** *     Initialize to the schematic state
  29:Generated_Source\PSoC4/Step_Counter.c **** * 
  30:Generated_Source\PSoC4/Step_Counter.c **** * Parameters:  
ARM GAS  C:\Users\casey\AppData\Local\Temp\ccgNvjL5.s 			page 2


  31:Generated_Source\PSoC4/Step_Counter.c **** *  void  
  32:Generated_Source\PSoC4/Step_Counter.c **** *
  33:Generated_Source\PSoC4/Step_Counter.c **** * Return: 
  34:Generated_Source\PSoC4/Step_Counter.c **** *  void
  35:Generated_Source\PSoC4/Step_Counter.c **** *
  36:Generated_Source\PSoC4/Step_Counter.c **** *******************************************************************************/
  37:Generated_Source\PSoC4/Step_Counter.c **** void Step_Counter_Init(void) 
  38:Generated_Source\PSoC4/Step_Counter.c **** {
  39:Generated_Source\PSoC4/Step_Counter.c ****         #if (!Step_Counter_UsingFixedFunction && !Step_Counter_ControlRegRemoved)
  40:Generated_Source\PSoC4/Step_Counter.c ****             uint8 ctrl;
  41:Generated_Source\PSoC4/Step_Counter.c ****         #endif /* (!Step_Counter_UsingFixedFunction && !Step_Counter_ControlRegRemoved) */
  42:Generated_Source\PSoC4/Step_Counter.c ****         
  43:Generated_Source\PSoC4/Step_Counter.c ****         #if(!Step_Counter_UsingFixedFunction) 
  44:Generated_Source\PSoC4/Step_Counter.c ****             /* Interrupt State Backup for Critical Region*/
  45:Generated_Source\PSoC4/Step_Counter.c ****             uint8 Step_Counter_interruptState;
  46:Generated_Source\PSoC4/Step_Counter.c ****         #endif /* (!Step_Counter_UsingFixedFunction) */
  47:Generated_Source\PSoC4/Step_Counter.c ****         
  48:Generated_Source\PSoC4/Step_Counter.c ****         #if (Step_Counter_UsingFixedFunction)
  49:Generated_Source\PSoC4/Step_Counter.c ****             /* Clear all bits but the enable bit (if it's already set for Timer operation */
  50:Generated_Source\PSoC4/Step_Counter.c ****             Step_Counter_CONTROL &= Step_Counter_CTRL_ENABLE;
  51:Generated_Source\PSoC4/Step_Counter.c ****             
  52:Generated_Source\PSoC4/Step_Counter.c ****             /* Clear the mode bits for continuous run mode */
  53:Generated_Source\PSoC4/Step_Counter.c ****             #if (CY_PSOC5A)
  54:Generated_Source\PSoC4/Step_Counter.c ****                 Step_Counter_CONTROL2 &= ((uint8)(~Step_Counter_CTRL_MODE_MASK));
  55:Generated_Source\PSoC4/Step_Counter.c ****             #endif /* (CY_PSOC5A) */
  56:Generated_Source\PSoC4/Step_Counter.c ****             #if (CY_PSOC3 || CY_PSOC5LP)
  57:Generated_Source\PSoC4/Step_Counter.c ****                 Step_Counter_CONTROL3 &= ((uint8)(~Step_Counter_CTRL_MODE_MASK));                
  58:Generated_Source\PSoC4/Step_Counter.c ****             #endif /* (CY_PSOC3 || CY_PSOC5LP) */
  59:Generated_Source\PSoC4/Step_Counter.c ****             /* Check if One Shot mode is enabled i.e. RunMode !=0*/
  60:Generated_Source\PSoC4/Step_Counter.c ****             #if (Step_Counter_RunModeUsed != 0x0u)
  61:Generated_Source\PSoC4/Step_Counter.c ****                 /* Set 3rd bit of Control register to enable one shot mode */
  62:Generated_Source\PSoC4/Step_Counter.c ****                 Step_Counter_CONTROL |= Step_Counter_ONESHOT;
  63:Generated_Source\PSoC4/Step_Counter.c ****             #endif /* (Step_Counter_RunModeUsed != 0x0u) */
  64:Generated_Source\PSoC4/Step_Counter.c ****             
  65:Generated_Source\PSoC4/Step_Counter.c ****             /* Set the IRQ to use the status register interrupts */
  66:Generated_Source\PSoC4/Step_Counter.c ****             Step_Counter_CONTROL2 |= Step_Counter_CTRL2_IRQ_SEL;
  67:Generated_Source\PSoC4/Step_Counter.c ****             
  68:Generated_Source\PSoC4/Step_Counter.c ****             /* Clear and Set SYNCTC and SYNCCMP bits of RT1 register */
  69:Generated_Source\PSoC4/Step_Counter.c ****             Step_Counter_RT1 &= ((uint8)(~Step_Counter_RT1_MASK));
  70:Generated_Source\PSoC4/Step_Counter.c ****             Step_Counter_RT1 |= Step_Counter_SYNC;     
  71:Generated_Source\PSoC4/Step_Counter.c ****                     
  72:Generated_Source\PSoC4/Step_Counter.c ****             /*Enable DSI Sync all all inputs of the Timer*/
  73:Generated_Source\PSoC4/Step_Counter.c ****             Step_Counter_RT1 &= ((uint8)(~Step_Counter_SYNCDSI_MASK));
  74:Generated_Source\PSoC4/Step_Counter.c ****             Step_Counter_RT1 |= Step_Counter_SYNCDSI_EN;
  75:Generated_Source\PSoC4/Step_Counter.c **** 
  76:Generated_Source\PSoC4/Step_Counter.c ****         #else
  77:Generated_Source\PSoC4/Step_Counter.c ****             #if(!Step_Counter_ControlRegRemoved)
  78:Generated_Source\PSoC4/Step_Counter.c ****             /* Set the default compare mode defined in the parameter */
  79:Generated_Source\PSoC4/Step_Counter.c ****             ctrl = Step_Counter_CONTROL & ((uint8)(~Step_Counter_CTRL_CMPMODE_MASK));
  80:Generated_Source\PSoC4/Step_Counter.c ****             Step_Counter_CONTROL = ctrl | Step_Counter_DEFAULT_COMPARE_MODE;
  81:Generated_Source\PSoC4/Step_Counter.c ****             
  82:Generated_Source\PSoC4/Step_Counter.c ****             /* Set the default capture mode defined in the parameter */
  83:Generated_Source\PSoC4/Step_Counter.c ****             ctrl = Step_Counter_CONTROL & ((uint8)(~Step_Counter_CTRL_CAPMODE_MASK));
  84:Generated_Source\PSoC4/Step_Counter.c ****             
  85:Generated_Source\PSoC4/Step_Counter.c ****             #if( 0 != Step_Counter_CAPTURE_MODE_CONF)
  86:Generated_Source\PSoC4/Step_Counter.c ****                 Step_Counter_CONTROL = ctrl | Step_Counter_DEFAULT_CAPTURE_MODE;
  87:Generated_Source\PSoC4/Step_Counter.c ****             #else
ARM GAS  C:\Users\casey\AppData\Local\Temp\ccgNvjL5.s 			page 3


  88:Generated_Source\PSoC4/Step_Counter.c ****                 Step_Counter_CONTROL = ctrl;
  89:Generated_Source\PSoC4/Step_Counter.c ****             #endif /* 0 != Step_Counter_CAPTURE_MODE */ 
  90:Generated_Source\PSoC4/Step_Counter.c ****             
  91:Generated_Source\PSoC4/Step_Counter.c ****             #endif /* (!Step_Counter_ControlRegRemoved) */
  92:Generated_Source\PSoC4/Step_Counter.c ****         #endif /* (Step_Counter_UsingFixedFunction) */
  93:Generated_Source\PSoC4/Step_Counter.c ****         
  94:Generated_Source\PSoC4/Step_Counter.c ****         /* Clear all data in the FIFO's */
  95:Generated_Source\PSoC4/Step_Counter.c ****         #if (!Step_Counter_UsingFixedFunction)
  96:Generated_Source\PSoC4/Step_Counter.c ****             Step_Counter_ClearFIFO();
  97:Generated_Source\PSoC4/Step_Counter.c ****         #endif /* (!Step_Counter_UsingFixedFunction) */
  98:Generated_Source\PSoC4/Step_Counter.c ****         
  99:Generated_Source\PSoC4/Step_Counter.c ****         /* Set Initial values from Configuration */
 100:Generated_Source\PSoC4/Step_Counter.c ****         Step_Counter_WritePeriod(Step_Counter_INIT_PERIOD_VALUE);
 101:Generated_Source\PSoC4/Step_Counter.c ****         #if (!(Step_Counter_UsingFixedFunction && (CY_PSOC5A)))
 102:Generated_Source\PSoC4/Step_Counter.c ****             Step_Counter_WriteCounter(Step_Counter_INIT_COUNTER_VALUE);
 103:Generated_Source\PSoC4/Step_Counter.c ****         #endif /* (!(Step_Counter_UsingFixedFunction && (CY_PSOC5A))) */
 104:Generated_Source\PSoC4/Step_Counter.c ****         Step_Counter_SetInterruptMode(Step_Counter_INIT_INTERRUPTS_MASK);
 105:Generated_Source\PSoC4/Step_Counter.c ****         
 106:Generated_Source\PSoC4/Step_Counter.c ****         #if (!Step_Counter_UsingFixedFunction)
 107:Generated_Source\PSoC4/Step_Counter.c ****             /* Read the status register to clear the unwanted interrupts */
 108:Generated_Source\PSoC4/Step_Counter.c ****             (void)Step_Counter_ReadStatusRegister();
 109:Generated_Source\PSoC4/Step_Counter.c ****             /* Set the compare value (only available to non-fixed function implementation */
 110:Generated_Source\PSoC4/Step_Counter.c ****             Step_Counter_WriteCompare(Step_Counter_INIT_COMPARE_VALUE);
 111:Generated_Source\PSoC4/Step_Counter.c ****             /* Use the interrupt output of the status register for IRQ output */
 112:Generated_Source\PSoC4/Step_Counter.c ****             
 113:Generated_Source\PSoC4/Step_Counter.c ****             /* CyEnterCriticalRegion and CyExitCriticalRegion are used to mark following region cri
 114:Generated_Source\PSoC4/Step_Counter.c ****             /* Enter Critical Region*/
 115:Generated_Source\PSoC4/Step_Counter.c ****             Step_Counter_interruptState = CyEnterCriticalSection();
 116:Generated_Source\PSoC4/Step_Counter.c ****             
 117:Generated_Source\PSoC4/Step_Counter.c ****             Step_Counter_STATUS_AUX_CTRL |= Step_Counter_STATUS_ACTL_INT_EN_MASK;
 118:Generated_Source\PSoC4/Step_Counter.c ****             
 119:Generated_Source\PSoC4/Step_Counter.c ****             /* Exit Critical Region*/
 120:Generated_Source\PSoC4/Step_Counter.c ****             CyExitCriticalSection(Step_Counter_interruptState);
 121:Generated_Source\PSoC4/Step_Counter.c ****             
 122:Generated_Source\PSoC4/Step_Counter.c ****         #endif /* (!Step_Counter_UsingFixedFunction) */
 123:Generated_Source\PSoC4/Step_Counter.c **** }
 124:Generated_Source\PSoC4/Step_Counter.c **** 
 125:Generated_Source\PSoC4/Step_Counter.c **** 
 126:Generated_Source\PSoC4/Step_Counter.c **** /*******************************************************************************
 127:Generated_Source\PSoC4/Step_Counter.c **** * Function Name: Step_Counter_Enable
 128:Generated_Source\PSoC4/Step_Counter.c **** ********************************************************************************
 129:Generated_Source\PSoC4/Step_Counter.c **** * Summary:
 130:Generated_Source\PSoC4/Step_Counter.c **** *     Enable the Counter
 131:Generated_Source\PSoC4/Step_Counter.c **** * 
 132:Generated_Source\PSoC4/Step_Counter.c **** * Parameters:  
 133:Generated_Source\PSoC4/Step_Counter.c **** *  void  
 134:Generated_Source\PSoC4/Step_Counter.c **** *
 135:Generated_Source\PSoC4/Step_Counter.c **** * Return: 
 136:Generated_Source\PSoC4/Step_Counter.c **** *  void
 137:Generated_Source\PSoC4/Step_Counter.c **** *
 138:Generated_Source\PSoC4/Step_Counter.c **** * Side Effects: 
 139:Generated_Source\PSoC4/Step_Counter.c **** *   If the Enable mode is set to Hardware only then this function has no effect 
 140:Generated_Source\PSoC4/Step_Counter.c **** *   on the operation of the counter.
 141:Generated_Source\PSoC4/Step_Counter.c **** *
 142:Generated_Source\PSoC4/Step_Counter.c **** *******************************************************************************/
 143:Generated_Source\PSoC4/Step_Counter.c **** void Step_Counter_Enable(void) 
 144:Generated_Source\PSoC4/Step_Counter.c **** {
ARM GAS  C:\Users\casey\AppData\Local\Temp\ccgNvjL5.s 			page 4


  28              		.loc 1 144 0
  29              		.cfi_startproc
  30              		@ args = 0, pretend = 0, frame = 0
  31              		@ frame_needed = 0, uses_anonymous_args = 0
  32              		@ link register save eliminated.
 145:Generated_Source\PSoC4/Step_Counter.c ****     /* Globally Enable the Fixed Function Block chosen */
 146:Generated_Source\PSoC4/Step_Counter.c ****     #if (Step_Counter_UsingFixedFunction)
 147:Generated_Source\PSoC4/Step_Counter.c ****         Step_Counter_GLOBAL_ENABLE |= Step_Counter_BLOCK_EN_MASK;
 148:Generated_Source\PSoC4/Step_Counter.c ****         Step_Counter_GLOBAL_STBY_ENABLE |= Step_Counter_BLOCK_STBY_EN_MASK;
 149:Generated_Source\PSoC4/Step_Counter.c ****     #endif /* (Step_Counter_UsingFixedFunction) */  
 150:Generated_Source\PSoC4/Step_Counter.c ****         
 151:Generated_Source\PSoC4/Step_Counter.c ****     /* Enable the counter from the control register  */
 152:Generated_Source\PSoC4/Step_Counter.c ****     /* If Fixed Function then make sure Mode is set correctly */
 153:Generated_Source\PSoC4/Step_Counter.c ****     /* else make sure reset is clear */
 154:Generated_Source\PSoC4/Step_Counter.c ****     #if(!Step_Counter_ControlRegRemoved || Step_Counter_UsingFixedFunction)
 155:Generated_Source\PSoC4/Step_Counter.c ****         Step_Counter_CONTROL |= Step_Counter_CTRL_ENABLE;                
  33              		.loc 1 155 0
  34 0000 034A     		ldr	r2, .L2
  35 0002 1178     		ldrb	r1, [r2]
  36 0004 8023     		movs	r3, #128
  37 0006 5B42     		rsbs	r3, r3, #0
  38 0008 0B43     		orrs	r3, r1
  39 000a DBB2     		uxtb	r3, r3
  40 000c 1370     		strb	r3, [r2]
 156:Generated_Source\PSoC4/Step_Counter.c ****     #endif /* (!Step_Counter_ControlRegRemoved || Step_Counter_UsingFixedFunction) */
 157:Generated_Source\PSoC4/Step_Counter.c ****     
 158:Generated_Source\PSoC4/Step_Counter.c **** }
  41              		.loc 1 158 0
  42              		@ sp needed
  43 000e 7047     		bx	lr
  44              	.L3:
  45              		.align	2
  46              	.L2:
  47 0010 71000F40 		.word	1074724977
  48              		.cfi_endproc
  49              	.LFE2:
  50              		.size	Step_Counter_Enable, .-Step_Counter_Enable
  51              		.section	.text.Step_Counter_Stop,"ax",%progbits
  52              		.align	2
  53              		.global	Step_Counter_Stop
  54              		.code	16
  55              		.thumb_func
  56              		.type	Step_Counter_Stop, %function
  57              	Step_Counter_Stop:
  58              	.LFB4:
 159:Generated_Source\PSoC4/Step_Counter.c **** 
 160:Generated_Source\PSoC4/Step_Counter.c **** 
 161:Generated_Source\PSoC4/Step_Counter.c **** /*******************************************************************************
 162:Generated_Source\PSoC4/Step_Counter.c **** * Function Name: Step_Counter_Start
 163:Generated_Source\PSoC4/Step_Counter.c **** ********************************************************************************
 164:Generated_Source\PSoC4/Step_Counter.c **** * Summary:
 165:Generated_Source\PSoC4/Step_Counter.c **** *  Enables the counter for operation 
 166:Generated_Source\PSoC4/Step_Counter.c **** *
 167:Generated_Source\PSoC4/Step_Counter.c **** * Parameters:  
 168:Generated_Source\PSoC4/Step_Counter.c **** *  void  
 169:Generated_Source\PSoC4/Step_Counter.c **** *
 170:Generated_Source\PSoC4/Step_Counter.c **** * Return: 
ARM GAS  C:\Users\casey\AppData\Local\Temp\ccgNvjL5.s 			page 5


 171:Generated_Source\PSoC4/Step_Counter.c **** *  void
 172:Generated_Source\PSoC4/Step_Counter.c **** *
 173:Generated_Source\PSoC4/Step_Counter.c **** * Global variables:
 174:Generated_Source\PSoC4/Step_Counter.c **** *  Step_Counter_initVar: Is modified when this function is called for the  
 175:Generated_Source\PSoC4/Step_Counter.c **** *   first time. Is used to ensure that initialization happens only once.
 176:Generated_Source\PSoC4/Step_Counter.c **** *
 177:Generated_Source\PSoC4/Step_Counter.c **** *******************************************************************************/
 178:Generated_Source\PSoC4/Step_Counter.c **** void Step_Counter_Start(void) 
 179:Generated_Source\PSoC4/Step_Counter.c **** {
 180:Generated_Source\PSoC4/Step_Counter.c ****     if(Step_Counter_initVar == 0u)
 181:Generated_Source\PSoC4/Step_Counter.c ****     {
 182:Generated_Source\PSoC4/Step_Counter.c ****         Step_Counter_Init();
 183:Generated_Source\PSoC4/Step_Counter.c ****         
 184:Generated_Source\PSoC4/Step_Counter.c ****         Step_Counter_initVar = 1u; /* Clear this bit for Initialization */        
 185:Generated_Source\PSoC4/Step_Counter.c ****     }
 186:Generated_Source\PSoC4/Step_Counter.c ****     
 187:Generated_Source\PSoC4/Step_Counter.c ****     /* Enable the Counter */
 188:Generated_Source\PSoC4/Step_Counter.c ****     Step_Counter_Enable();        
 189:Generated_Source\PSoC4/Step_Counter.c **** }
 190:Generated_Source\PSoC4/Step_Counter.c **** 
 191:Generated_Source\PSoC4/Step_Counter.c **** 
 192:Generated_Source\PSoC4/Step_Counter.c **** /*******************************************************************************
 193:Generated_Source\PSoC4/Step_Counter.c **** * Function Name: Step_Counter_Stop
 194:Generated_Source\PSoC4/Step_Counter.c **** ********************************************************************************
 195:Generated_Source\PSoC4/Step_Counter.c **** * Summary:
 196:Generated_Source\PSoC4/Step_Counter.c **** * Halts the counter, but does not change any modes or disable interrupts.
 197:Generated_Source\PSoC4/Step_Counter.c **** *
 198:Generated_Source\PSoC4/Step_Counter.c **** * Parameters:  
 199:Generated_Source\PSoC4/Step_Counter.c **** *  void  
 200:Generated_Source\PSoC4/Step_Counter.c **** *
 201:Generated_Source\PSoC4/Step_Counter.c **** * Return: 
 202:Generated_Source\PSoC4/Step_Counter.c **** *  void
 203:Generated_Source\PSoC4/Step_Counter.c **** *
 204:Generated_Source\PSoC4/Step_Counter.c **** * Side Effects: If the Enable mode is set to Hardware only then this function
 205:Generated_Source\PSoC4/Step_Counter.c **** *               has no effect on the operation of the counter.
 206:Generated_Source\PSoC4/Step_Counter.c **** *
 207:Generated_Source\PSoC4/Step_Counter.c **** *******************************************************************************/
 208:Generated_Source\PSoC4/Step_Counter.c **** void Step_Counter_Stop(void) 
 209:Generated_Source\PSoC4/Step_Counter.c **** {
  59              		.loc 1 209 0
  60              		.cfi_startproc
  61              		@ args = 0, pretend = 0, frame = 0
  62              		@ frame_needed = 0, uses_anonymous_args = 0
  63              		@ link register save eliminated.
 210:Generated_Source\PSoC4/Step_Counter.c ****     /* Disable Counter */
 211:Generated_Source\PSoC4/Step_Counter.c ****     #if(!Step_Counter_ControlRegRemoved || Step_Counter_UsingFixedFunction)
 212:Generated_Source\PSoC4/Step_Counter.c ****         Step_Counter_CONTROL &= ((uint8)(~Step_Counter_CTRL_ENABLE));        
  64              		.loc 1 212 0
  65 0000 024A     		ldr	r2, .L5
  66 0002 1178     		ldrb	r1, [r2]
  67 0004 7F23     		movs	r3, #127
  68 0006 0B40     		ands	r3, r1
  69 0008 1370     		strb	r3, [r2]
 213:Generated_Source\PSoC4/Step_Counter.c ****     #endif /* (!Step_Counter_ControlRegRemoved || Step_Counter_UsingFixedFunction) */
 214:Generated_Source\PSoC4/Step_Counter.c ****     
 215:Generated_Source\PSoC4/Step_Counter.c ****     /* Globally disable the Fixed Function Block chosen */
 216:Generated_Source\PSoC4/Step_Counter.c ****     #if (Step_Counter_UsingFixedFunction)
ARM GAS  C:\Users\casey\AppData\Local\Temp\ccgNvjL5.s 			page 6


 217:Generated_Source\PSoC4/Step_Counter.c ****         Step_Counter_GLOBAL_ENABLE &= ((uint8)(~Step_Counter_BLOCK_EN_MASK));
 218:Generated_Source\PSoC4/Step_Counter.c ****         Step_Counter_GLOBAL_STBY_ENABLE &= ((uint8)(~Step_Counter_BLOCK_STBY_EN_MASK));
 219:Generated_Source\PSoC4/Step_Counter.c ****     #endif /* (Step_Counter_UsingFixedFunction) */
 220:Generated_Source\PSoC4/Step_Counter.c **** }
  70              		.loc 1 220 0
  71              		@ sp needed
  72 000a 7047     		bx	lr
  73              	.L6:
  74              		.align	2
  75              	.L5:
  76 000c 71000F40 		.word	1074724977
  77              		.cfi_endproc
  78              	.LFE4:
  79              		.size	Step_Counter_Stop, .-Step_Counter_Stop
  80              		.section	.text.Step_Counter_SetInterruptMode,"ax",%progbits
  81              		.align	2
  82              		.global	Step_Counter_SetInterruptMode
  83              		.code	16
  84              		.thumb_func
  85              		.type	Step_Counter_SetInterruptMode, %function
  86              	Step_Counter_SetInterruptMode:
  87              	.LFB5:
 221:Generated_Source\PSoC4/Step_Counter.c **** 
 222:Generated_Source\PSoC4/Step_Counter.c **** 
 223:Generated_Source\PSoC4/Step_Counter.c **** /*******************************************************************************
 224:Generated_Source\PSoC4/Step_Counter.c **** * Function Name: Step_Counter_SetInterruptMode
 225:Generated_Source\PSoC4/Step_Counter.c **** ********************************************************************************
 226:Generated_Source\PSoC4/Step_Counter.c **** * Summary:
 227:Generated_Source\PSoC4/Step_Counter.c **** * Configures which interrupt sources are enabled to generate the final interrupt
 228:Generated_Source\PSoC4/Step_Counter.c **** *
 229:Generated_Source\PSoC4/Step_Counter.c **** * Parameters:  
 230:Generated_Source\PSoC4/Step_Counter.c **** *  InterruptsMask: This parameter is an or'd collection of the status bits
 231:Generated_Source\PSoC4/Step_Counter.c **** *                   which will be allowed to generate the counters interrupt.   
 232:Generated_Source\PSoC4/Step_Counter.c **** *
 233:Generated_Source\PSoC4/Step_Counter.c **** * Return: 
 234:Generated_Source\PSoC4/Step_Counter.c **** *  void
 235:Generated_Source\PSoC4/Step_Counter.c **** *
 236:Generated_Source\PSoC4/Step_Counter.c **** *******************************************************************************/
 237:Generated_Source\PSoC4/Step_Counter.c **** void Step_Counter_SetInterruptMode(uint8 interruptsMask) 
 238:Generated_Source\PSoC4/Step_Counter.c **** {
  88              		.loc 1 238 0
  89              		.cfi_startproc
  90              		@ args = 0, pretend = 0, frame = 0
  91              		@ frame_needed = 0, uses_anonymous_args = 0
  92              		@ link register save eliminated.
  93              	.LVL0:
 239:Generated_Source\PSoC4/Step_Counter.c ****     Step_Counter_STATUS_MASK = interruptsMask;
  94              		.loc 1 239 0
  95 0000 014B     		ldr	r3, .L8
  96 0002 1870     		strb	r0, [r3]
 240:Generated_Source\PSoC4/Step_Counter.c **** }
  97              		.loc 1 240 0
  98              		@ sp needed
  99 0004 7047     		bx	lr
 100              	.L9:
 101 0006 C046     		.align	2
 102              	.L8:
ARM GAS  C:\Users\casey\AppData\Local\Temp\ccgNvjL5.s 			page 7


 103 0008 83000F40 		.word	1074724995
 104              		.cfi_endproc
 105              	.LFE5:
 106              		.size	Step_Counter_SetInterruptMode, .-Step_Counter_SetInterruptMode
 107              		.section	.text.Step_Counter_ReadStatusRegister,"ax",%progbits
 108              		.align	2
 109              		.global	Step_Counter_ReadStatusRegister
 110              		.code	16
 111              		.thumb_func
 112              		.type	Step_Counter_ReadStatusRegister, %function
 113              	Step_Counter_ReadStatusRegister:
 114              	.LFB6:
 241:Generated_Source\PSoC4/Step_Counter.c **** 
 242:Generated_Source\PSoC4/Step_Counter.c **** 
 243:Generated_Source\PSoC4/Step_Counter.c **** /*******************************************************************************
 244:Generated_Source\PSoC4/Step_Counter.c **** * Function Name: Step_Counter_ReadStatusRegister
 245:Generated_Source\PSoC4/Step_Counter.c **** ********************************************************************************
 246:Generated_Source\PSoC4/Step_Counter.c **** * Summary:
 247:Generated_Source\PSoC4/Step_Counter.c **** *   Reads the status register and returns it's state. This function should use
 248:Generated_Source\PSoC4/Step_Counter.c **** *       defined types for the bit-field information as the bits in this
 249:Generated_Source\PSoC4/Step_Counter.c **** *       register may be permuteable.
 250:Generated_Source\PSoC4/Step_Counter.c **** *
 251:Generated_Source\PSoC4/Step_Counter.c **** * Parameters:  
 252:Generated_Source\PSoC4/Step_Counter.c **** *  void
 253:Generated_Source\PSoC4/Step_Counter.c **** *
 254:Generated_Source\PSoC4/Step_Counter.c **** * Return: 
 255:Generated_Source\PSoC4/Step_Counter.c **** *  (uint8) The contents of the status register
 256:Generated_Source\PSoC4/Step_Counter.c **** *
 257:Generated_Source\PSoC4/Step_Counter.c **** * Side Effects:
 258:Generated_Source\PSoC4/Step_Counter.c **** *   Status register bits may be clear on read. 
 259:Generated_Source\PSoC4/Step_Counter.c **** *
 260:Generated_Source\PSoC4/Step_Counter.c **** *******************************************************************************/
 261:Generated_Source\PSoC4/Step_Counter.c **** uint8   Step_Counter_ReadStatusRegister(void) 
 262:Generated_Source\PSoC4/Step_Counter.c **** {
 115              		.loc 1 262 0
 116              		.cfi_startproc
 117              		@ args = 0, pretend = 0, frame = 0
 118              		@ frame_needed = 0, uses_anonymous_args = 0
 119              		@ link register save eliminated.
 263:Generated_Source\PSoC4/Step_Counter.c ****     return Step_Counter_STATUS;
 120              		.loc 1 263 0
 121 0000 014B     		ldr	r3, .L11
 122 0002 1878     		ldrb	r0, [r3]
 123 0004 C0B2     		uxtb	r0, r0
 264:Generated_Source\PSoC4/Step_Counter.c **** }
 124              		.loc 1 264 0
 125              		@ sp needed
 126 0006 7047     		bx	lr
 127              	.L12:
 128              		.align	2
 129              	.L11:
 130 0008 63000F40 		.word	1074724963
 131              		.cfi_endproc
 132              	.LFE6:
 133              		.size	Step_Counter_ReadStatusRegister, .-Step_Counter_ReadStatusRegister
 134              		.section	.text.Step_Counter_ReadControlRegister,"ax",%progbits
 135              		.align	2
ARM GAS  C:\Users\casey\AppData\Local\Temp\ccgNvjL5.s 			page 8


 136              		.global	Step_Counter_ReadControlRegister
 137              		.code	16
 138              		.thumb_func
 139              		.type	Step_Counter_ReadControlRegister, %function
 140              	Step_Counter_ReadControlRegister:
 141              	.LFB7:
 265:Generated_Source\PSoC4/Step_Counter.c **** 
 266:Generated_Source\PSoC4/Step_Counter.c **** 
 267:Generated_Source\PSoC4/Step_Counter.c **** #if(!Step_Counter_ControlRegRemoved)
 268:Generated_Source\PSoC4/Step_Counter.c **** /*******************************************************************************
 269:Generated_Source\PSoC4/Step_Counter.c **** * Function Name: Step_Counter_ReadControlRegister
 270:Generated_Source\PSoC4/Step_Counter.c **** ********************************************************************************
 271:Generated_Source\PSoC4/Step_Counter.c **** * Summary:
 272:Generated_Source\PSoC4/Step_Counter.c **** *   Reads the control register and returns it's state. This function should use
 273:Generated_Source\PSoC4/Step_Counter.c **** *       defined types for the bit-field information as the bits in this
 274:Generated_Source\PSoC4/Step_Counter.c **** *       register may be permuteable.
 275:Generated_Source\PSoC4/Step_Counter.c **** *
 276:Generated_Source\PSoC4/Step_Counter.c **** * Parameters:  
 277:Generated_Source\PSoC4/Step_Counter.c **** *  void
 278:Generated_Source\PSoC4/Step_Counter.c **** *
 279:Generated_Source\PSoC4/Step_Counter.c **** * Return: 
 280:Generated_Source\PSoC4/Step_Counter.c **** *  (uint8) The contents of the control register
 281:Generated_Source\PSoC4/Step_Counter.c **** *
 282:Generated_Source\PSoC4/Step_Counter.c **** *******************************************************************************/
 283:Generated_Source\PSoC4/Step_Counter.c **** uint8   Step_Counter_ReadControlRegister(void) 
 284:Generated_Source\PSoC4/Step_Counter.c **** {
 142              		.loc 1 284 0
 143              		.cfi_startproc
 144              		@ args = 0, pretend = 0, frame = 0
 145              		@ frame_needed = 0, uses_anonymous_args = 0
 146              		@ link register save eliminated.
 285:Generated_Source\PSoC4/Step_Counter.c ****     return Step_Counter_CONTROL;
 147              		.loc 1 285 0
 148 0000 014B     		ldr	r3, .L14
 149 0002 1878     		ldrb	r0, [r3]
 150 0004 C0B2     		uxtb	r0, r0
 286:Generated_Source\PSoC4/Step_Counter.c **** }
 151              		.loc 1 286 0
 152              		@ sp needed
 153 0006 7047     		bx	lr
 154              	.L15:
 155              		.align	2
 156              	.L14:
 157 0008 71000F40 		.word	1074724977
 158              		.cfi_endproc
 159              	.LFE7:
 160              		.size	Step_Counter_ReadControlRegister, .-Step_Counter_ReadControlRegister
 161              		.section	.text.Step_Counter_WriteControlRegister,"ax",%progbits
 162              		.align	2
 163              		.global	Step_Counter_WriteControlRegister
 164              		.code	16
 165              		.thumb_func
 166              		.type	Step_Counter_WriteControlRegister, %function
 167              	Step_Counter_WriteControlRegister:
 168              	.LFB8:
 287:Generated_Source\PSoC4/Step_Counter.c **** 
 288:Generated_Source\PSoC4/Step_Counter.c **** 
ARM GAS  C:\Users\casey\AppData\Local\Temp\ccgNvjL5.s 			page 9


 289:Generated_Source\PSoC4/Step_Counter.c **** /*******************************************************************************
 290:Generated_Source\PSoC4/Step_Counter.c **** * Function Name: Step_Counter_WriteControlRegister
 291:Generated_Source\PSoC4/Step_Counter.c **** ********************************************************************************
 292:Generated_Source\PSoC4/Step_Counter.c **** * Summary:
 293:Generated_Source\PSoC4/Step_Counter.c **** *   Sets the bit-field of the control register.  This function should use
 294:Generated_Source\PSoC4/Step_Counter.c **** *       defined types for the bit-field information as the bits in this
 295:Generated_Source\PSoC4/Step_Counter.c **** *       register may be permuteable.
 296:Generated_Source\PSoC4/Step_Counter.c **** *
 297:Generated_Source\PSoC4/Step_Counter.c **** * Parameters:  
 298:Generated_Source\PSoC4/Step_Counter.c **** *  void
 299:Generated_Source\PSoC4/Step_Counter.c **** *
 300:Generated_Source\PSoC4/Step_Counter.c **** * Return: 
 301:Generated_Source\PSoC4/Step_Counter.c **** *  (uint8) The contents of the control register
 302:Generated_Source\PSoC4/Step_Counter.c **** *
 303:Generated_Source\PSoC4/Step_Counter.c **** *******************************************************************************/
 304:Generated_Source\PSoC4/Step_Counter.c **** void    Step_Counter_WriteControlRegister(uint8 control) 
 305:Generated_Source\PSoC4/Step_Counter.c **** {
 169              		.loc 1 305 0
 170              		.cfi_startproc
 171              		@ args = 0, pretend = 0, frame = 0
 172              		@ frame_needed = 0, uses_anonymous_args = 0
 173              		@ link register save eliminated.
 174              	.LVL1:
 306:Generated_Source\PSoC4/Step_Counter.c ****     Step_Counter_CONTROL = control;
 175              		.loc 1 306 0
 176 0000 014B     		ldr	r3, .L17
 177 0002 1870     		strb	r0, [r3]
 307:Generated_Source\PSoC4/Step_Counter.c **** }
 178              		.loc 1 307 0
 179              		@ sp needed
 180 0004 7047     		bx	lr
 181              	.L18:
 182 0006 C046     		.align	2
 183              	.L17:
 184 0008 71000F40 		.word	1074724977
 185              		.cfi_endproc
 186              	.LFE8:
 187              		.size	Step_Counter_WriteControlRegister, .-Step_Counter_WriteControlRegister
 188              		.section	.text.Step_Counter_WriteCounter,"ax",%progbits
 189              		.align	2
 190              		.global	Step_Counter_WriteCounter
 191              		.code	16
 192              		.thumb_func
 193              		.type	Step_Counter_WriteCounter, %function
 194              	Step_Counter_WriteCounter:
 195              	.LFB9:
 308:Generated_Source\PSoC4/Step_Counter.c **** 
 309:Generated_Source\PSoC4/Step_Counter.c **** #endif  /* (!Step_Counter_ControlRegRemoved) */
 310:Generated_Source\PSoC4/Step_Counter.c **** 
 311:Generated_Source\PSoC4/Step_Counter.c **** 
 312:Generated_Source\PSoC4/Step_Counter.c **** #if (!(Step_Counter_UsingFixedFunction && (CY_PSOC5A)))
 313:Generated_Source\PSoC4/Step_Counter.c **** /*******************************************************************************
 314:Generated_Source\PSoC4/Step_Counter.c **** * Function Name: Step_Counter_WriteCounter
 315:Generated_Source\PSoC4/Step_Counter.c **** ********************************************************************************
 316:Generated_Source\PSoC4/Step_Counter.c **** * Summary:
 317:Generated_Source\PSoC4/Step_Counter.c **** *   This funtion is used to set the counter to a specific value
 318:Generated_Source\PSoC4/Step_Counter.c **** *
ARM GAS  C:\Users\casey\AppData\Local\Temp\ccgNvjL5.s 			page 10


 319:Generated_Source\PSoC4/Step_Counter.c **** * Parameters:  
 320:Generated_Source\PSoC4/Step_Counter.c **** *  counter:  New counter value. 
 321:Generated_Source\PSoC4/Step_Counter.c **** *
 322:Generated_Source\PSoC4/Step_Counter.c **** * Return: 
 323:Generated_Source\PSoC4/Step_Counter.c **** *  void 
 324:Generated_Source\PSoC4/Step_Counter.c **** *
 325:Generated_Source\PSoC4/Step_Counter.c **** *******************************************************************************/
 326:Generated_Source\PSoC4/Step_Counter.c **** void Step_Counter_WriteCounter(uint32 counter) \
 327:Generated_Source\PSoC4/Step_Counter.c ****                                    
 328:Generated_Source\PSoC4/Step_Counter.c **** {
 196              		.loc 1 328 0
 197              		.cfi_startproc
 198              		@ args = 0, pretend = 0, frame = 0
 199              		@ frame_needed = 0, uses_anonymous_args = 0
 200              		@ link register save eliminated.
 201              	.LVL2:
 329:Generated_Source\PSoC4/Step_Counter.c ****     #if(Step_Counter_UsingFixedFunction)
 330:Generated_Source\PSoC4/Step_Counter.c ****         /* assert if block is already enabled */
 331:Generated_Source\PSoC4/Step_Counter.c ****         CYASSERT (0u == (Step_Counter_GLOBAL_ENABLE & Step_Counter_BLOCK_EN_MASK));
 332:Generated_Source\PSoC4/Step_Counter.c ****         /* If block is disabled, enable it and then write the counter */
 333:Generated_Source\PSoC4/Step_Counter.c ****         Step_Counter_GLOBAL_ENABLE |= Step_Counter_BLOCK_EN_MASK;
 334:Generated_Source\PSoC4/Step_Counter.c ****         CY_SET_REG16(Step_Counter_COUNTER_LSB_PTR, (uint16)counter);
 335:Generated_Source\PSoC4/Step_Counter.c ****         Step_Counter_GLOBAL_ENABLE &= ((uint8)(~Step_Counter_BLOCK_EN_MASK));
 336:Generated_Source\PSoC4/Step_Counter.c ****     #else
 337:Generated_Source\PSoC4/Step_Counter.c ****         CY_SET_REG32(Step_Counter_COUNTER_LSB_PTR, counter);
 202              		.loc 1 337 0
 203 0000 014B     		ldr	r3, .L20
 204 0002 1860     		str	r0, [r3]
 338:Generated_Source\PSoC4/Step_Counter.c ****     #endif /* (Step_Counter_UsingFixedFunction) */
 339:Generated_Source\PSoC4/Step_Counter.c **** }
 205              		.loc 1 339 0
 206              		@ sp needed
 207 0004 7047     		bx	lr
 208              	.L21:
 209 0006 C046     		.align	2
 210              	.L20:
 211 0008 00200F40 		.word	1074733056
 212              		.cfi_endproc
 213              	.LFE9:
 214              		.size	Step_Counter_WriteCounter, .-Step_Counter_WriteCounter
 215              		.section	.text.Step_Counter_ReadCounter,"ax",%progbits
 216              		.align	2
 217              		.global	Step_Counter_ReadCounter
 218              		.code	16
 219              		.thumb_func
 220              		.type	Step_Counter_ReadCounter, %function
 221              	Step_Counter_ReadCounter:
 222              	.LFB10:
 340:Generated_Source\PSoC4/Step_Counter.c **** #endif /* (!(Step_Counter_UsingFixedFunction && (CY_PSOC5A))) */
 341:Generated_Source\PSoC4/Step_Counter.c **** 
 342:Generated_Source\PSoC4/Step_Counter.c **** 
 343:Generated_Source\PSoC4/Step_Counter.c **** /*******************************************************************************
 344:Generated_Source\PSoC4/Step_Counter.c **** * Function Name: Step_Counter_ReadCounter
 345:Generated_Source\PSoC4/Step_Counter.c **** ********************************************************************************
 346:Generated_Source\PSoC4/Step_Counter.c **** * Summary:
 347:Generated_Source\PSoC4/Step_Counter.c **** * Returns the current value of the counter.  It doesn't matter
 348:Generated_Source\PSoC4/Step_Counter.c **** * if the counter is enabled or running.
ARM GAS  C:\Users\casey\AppData\Local\Temp\ccgNvjL5.s 			page 11


 349:Generated_Source\PSoC4/Step_Counter.c **** *
 350:Generated_Source\PSoC4/Step_Counter.c **** * Parameters:  
 351:Generated_Source\PSoC4/Step_Counter.c **** *  void:  
 352:Generated_Source\PSoC4/Step_Counter.c **** *
 353:Generated_Source\PSoC4/Step_Counter.c **** * Return: 
 354:Generated_Source\PSoC4/Step_Counter.c **** *  (uint32) The present value of the counter.
 355:Generated_Source\PSoC4/Step_Counter.c **** *
 356:Generated_Source\PSoC4/Step_Counter.c **** *******************************************************************************/
 357:Generated_Source\PSoC4/Step_Counter.c **** uint32 Step_Counter_ReadCounter(void) 
 358:Generated_Source\PSoC4/Step_Counter.c **** {
 223              		.loc 1 358 0
 224              		.cfi_startproc
 225              		@ args = 0, pretend = 0, frame = 0
 226              		@ frame_needed = 0, uses_anonymous_args = 0
 227              		@ link register save eliminated.
 359:Generated_Source\PSoC4/Step_Counter.c ****     /* Force capture by reading Accumulator */
 360:Generated_Source\PSoC4/Step_Counter.c ****     /* Must first do a software capture to be able to read the counter */
 361:Generated_Source\PSoC4/Step_Counter.c ****     /* It is up to the user code to make sure there isn't already captured data in the FIFO */
 362:Generated_Source\PSoC4/Step_Counter.c ****     #if(Step_Counter_UsingFixedFunction)
 363:Generated_Source\PSoC4/Step_Counter.c **** 		(void)CY_GET_REG16(Step_Counter_COUNTER_LSB_PTR);
 364:Generated_Source\PSoC4/Step_Counter.c **** 	#else
 365:Generated_Source\PSoC4/Step_Counter.c **** 		(void)CY_GET_REG8(Step_Counter_COUNTER_LSB_PTR_8BIT);
 228              		.loc 1 365 0
 229 0000 024B     		ldr	r3, .L23
 230 0002 1B78     		ldrb	r3, [r3]
 366:Generated_Source\PSoC4/Step_Counter.c **** 	#endif/* (Step_Counter_UsingFixedFunction) */
 367:Generated_Source\PSoC4/Step_Counter.c ****     
 368:Generated_Source\PSoC4/Step_Counter.c ****     /* Read the data from the FIFO (or capture register for Fixed Function)*/
 369:Generated_Source\PSoC4/Step_Counter.c ****     #if(Step_Counter_UsingFixedFunction)
 370:Generated_Source\PSoC4/Step_Counter.c ****         return ((uint32)CY_GET_REG16(Step_Counter_STATICCOUNT_LSB_PTR));
 371:Generated_Source\PSoC4/Step_Counter.c ****     #else
 372:Generated_Source\PSoC4/Step_Counter.c ****         return (CY_GET_REG32(Step_Counter_STATICCOUNT_LSB_PTR));
 231              		.loc 1 372 0
 232 0004 024B     		ldr	r3, .L23+4
 233 0006 1868     		ldr	r0, [r3]
 373:Generated_Source\PSoC4/Step_Counter.c ****     #endif /* (Step_Counter_UsingFixedFunction) */
 374:Generated_Source\PSoC4/Step_Counter.c **** }
 234              		.loc 1 374 0
 235              		@ sp needed
 236 0008 7047     		bx	lr
 237              	.L24:
 238 000a C046     		.align	2
 239              	.L23:
 240 000c 00000F40 		.word	1074724864
 241 0010 00210F40 		.word	1074733312
 242              		.cfi_endproc
 243              	.LFE10:
 244              		.size	Step_Counter_ReadCounter, .-Step_Counter_ReadCounter
 245              		.section	.text.Step_Counter_ReadCapture,"ax",%progbits
 246              		.align	2
 247              		.global	Step_Counter_ReadCapture
 248              		.code	16
 249              		.thumb_func
 250              		.type	Step_Counter_ReadCapture, %function
 251              	Step_Counter_ReadCapture:
 252              	.LFB11:
 375:Generated_Source\PSoC4/Step_Counter.c **** 
ARM GAS  C:\Users\casey\AppData\Local\Temp\ccgNvjL5.s 			page 12


 376:Generated_Source\PSoC4/Step_Counter.c **** 
 377:Generated_Source\PSoC4/Step_Counter.c **** /*******************************************************************************
 378:Generated_Source\PSoC4/Step_Counter.c **** * Function Name: Step_Counter_ReadCapture
 379:Generated_Source\PSoC4/Step_Counter.c **** ********************************************************************************
 380:Generated_Source\PSoC4/Step_Counter.c **** * Summary:
 381:Generated_Source\PSoC4/Step_Counter.c **** *   This function returns the last value captured.
 382:Generated_Source\PSoC4/Step_Counter.c **** *
 383:Generated_Source\PSoC4/Step_Counter.c **** * Parameters:  
 384:Generated_Source\PSoC4/Step_Counter.c **** *  void
 385:Generated_Source\PSoC4/Step_Counter.c **** *
 386:Generated_Source\PSoC4/Step_Counter.c **** * Return: 
 387:Generated_Source\PSoC4/Step_Counter.c **** *  (uint32) Present Capture value.
 388:Generated_Source\PSoC4/Step_Counter.c **** *
 389:Generated_Source\PSoC4/Step_Counter.c **** *******************************************************************************/
 390:Generated_Source\PSoC4/Step_Counter.c **** uint32 Step_Counter_ReadCapture(void) 
 391:Generated_Source\PSoC4/Step_Counter.c **** {
 253              		.loc 1 391 0
 254              		.cfi_startproc
 255              		@ args = 0, pretend = 0, frame = 0
 256              		@ frame_needed = 0, uses_anonymous_args = 0
 257              		@ link register save eliminated.
 392:Generated_Source\PSoC4/Step_Counter.c ****     #if(Step_Counter_UsingFixedFunction)
 393:Generated_Source\PSoC4/Step_Counter.c ****         return ((uint32)CY_GET_REG16(Step_Counter_STATICCOUNT_LSB_PTR));
 394:Generated_Source\PSoC4/Step_Counter.c ****     #else
 395:Generated_Source\PSoC4/Step_Counter.c ****         return (CY_GET_REG32(Step_Counter_STATICCOUNT_LSB_PTR));
 258              		.loc 1 395 0
 259 0000 014B     		ldr	r3, .L26
 260 0002 1868     		ldr	r0, [r3]
 396:Generated_Source\PSoC4/Step_Counter.c ****     #endif /* (Step_Counter_UsingFixedFunction) */
 397:Generated_Source\PSoC4/Step_Counter.c **** }
 261              		.loc 1 397 0
 262              		@ sp needed
 263 0004 7047     		bx	lr
 264              	.L27:
 265 0006 C046     		.align	2
 266              	.L26:
 267 0008 00210F40 		.word	1074733312
 268              		.cfi_endproc
 269              	.LFE11:
 270              		.size	Step_Counter_ReadCapture, .-Step_Counter_ReadCapture
 271              		.section	.text.Step_Counter_WritePeriod,"ax",%progbits
 272              		.align	2
 273              		.global	Step_Counter_WritePeriod
 274              		.code	16
 275              		.thumb_func
 276              		.type	Step_Counter_WritePeriod, %function
 277              	Step_Counter_WritePeriod:
 278              	.LFB12:
 398:Generated_Source\PSoC4/Step_Counter.c **** 
 399:Generated_Source\PSoC4/Step_Counter.c **** 
 400:Generated_Source\PSoC4/Step_Counter.c **** /*******************************************************************************
 401:Generated_Source\PSoC4/Step_Counter.c **** * Function Name: Step_Counter_WritePeriod
 402:Generated_Source\PSoC4/Step_Counter.c **** ********************************************************************************
 403:Generated_Source\PSoC4/Step_Counter.c **** * Summary:
 404:Generated_Source\PSoC4/Step_Counter.c **** * Changes the period of the counter.  The new period 
 405:Generated_Source\PSoC4/Step_Counter.c **** * will be loaded the next time terminal count is detected.
 406:Generated_Source\PSoC4/Step_Counter.c **** *
ARM GAS  C:\Users\casey\AppData\Local\Temp\ccgNvjL5.s 			page 13


 407:Generated_Source\PSoC4/Step_Counter.c **** * Parameters:  
 408:Generated_Source\PSoC4/Step_Counter.c **** *  period: (uint32) A value of 0 will result in
 409:Generated_Source\PSoC4/Step_Counter.c **** *         the counter remaining at zero.  
 410:Generated_Source\PSoC4/Step_Counter.c **** *
 411:Generated_Source\PSoC4/Step_Counter.c **** * Return: 
 412:Generated_Source\PSoC4/Step_Counter.c **** *  void
 413:Generated_Source\PSoC4/Step_Counter.c **** *
 414:Generated_Source\PSoC4/Step_Counter.c **** *******************************************************************************/
 415:Generated_Source\PSoC4/Step_Counter.c **** void Step_Counter_WritePeriod(uint32 period) 
 416:Generated_Source\PSoC4/Step_Counter.c **** {
 279              		.loc 1 416 0
 280              		.cfi_startproc
 281              		@ args = 0, pretend = 0, frame = 0
 282              		@ frame_needed = 0, uses_anonymous_args = 0
 283              		@ link register save eliminated.
 284              	.LVL3:
 417:Generated_Source\PSoC4/Step_Counter.c ****     #if(Step_Counter_UsingFixedFunction)
 418:Generated_Source\PSoC4/Step_Counter.c ****         CY_SET_REG16(Step_Counter_PERIOD_LSB_PTR,(uint16)period);
 419:Generated_Source\PSoC4/Step_Counter.c ****     #else
 420:Generated_Source\PSoC4/Step_Counter.c ****         CY_SET_REG32(Step_Counter_PERIOD_LSB_PTR, period);
 285              		.loc 1 420 0
 286 0000 014B     		ldr	r3, .L29
 287 0002 1860     		str	r0, [r3]
 421:Generated_Source\PSoC4/Step_Counter.c ****     #endif /* (Step_Counter_UsingFixedFunction) */
 422:Generated_Source\PSoC4/Step_Counter.c **** }
 288              		.loc 1 422 0
 289              		@ sp needed
 290 0004 7047     		bx	lr
 291              	.L30:
 292 0006 C046     		.align	2
 293              	.L29:
 294 0008 80200F40 		.word	1074733184
 295              		.cfi_endproc
 296              	.LFE12:
 297              		.size	Step_Counter_WritePeriod, .-Step_Counter_WritePeriod
 298              		.section	.text.Step_Counter_ReadPeriod,"ax",%progbits
 299              		.align	2
 300              		.global	Step_Counter_ReadPeriod
 301              		.code	16
 302              		.thumb_func
 303              		.type	Step_Counter_ReadPeriod, %function
 304              	Step_Counter_ReadPeriod:
 305              	.LFB13:
 423:Generated_Source\PSoC4/Step_Counter.c **** 
 424:Generated_Source\PSoC4/Step_Counter.c **** 
 425:Generated_Source\PSoC4/Step_Counter.c **** /*******************************************************************************
 426:Generated_Source\PSoC4/Step_Counter.c **** * Function Name: Step_Counter_ReadPeriod
 427:Generated_Source\PSoC4/Step_Counter.c **** ********************************************************************************
 428:Generated_Source\PSoC4/Step_Counter.c **** * Summary:
 429:Generated_Source\PSoC4/Step_Counter.c **** * Reads the current period value without affecting counter operation.
 430:Generated_Source\PSoC4/Step_Counter.c **** *
 431:Generated_Source\PSoC4/Step_Counter.c **** * Parameters:  
 432:Generated_Source\PSoC4/Step_Counter.c **** *  void:  
 433:Generated_Source\PSoC4/Step_Counter.c **** *
 434:Generated_Source\PSoC4/Step_Counter.c **** * Return: 
 435:Generated_Source\PSoC4/Step_Counter.c **** *  (uint32) Present period value.
 436:Generated_Source\PSoC4/Step_Counter.c **** *
ARM GAS  C:\Users\casey\AppData\Local\Temp\ccgNvjL5.s 			page 14


 437:Generated_Source\PSoC4/Step_Counter.c **** *******************************************************************************/
 438:Generated_Source\PSoC4/Step_Counter.c **** uint32 Step_Counter_ReadPeriod(void) 
 439:Generated_Source\PSoC4/Step_Counter.c **** {
 306              		.loc 1 439 0
 307              		.cfi_startproc
 308              		@ args = 0, pretend = 0, frame = 0
 309              		@ frame_needed = 0, uses_anonymous_args = 0
 310              		@ link register save eliminated.
 440:Generated_Source\PSoC4/Step_Counter.c ****     #if(Step_Counter_UsingFixedFunction)
 441:Generated_Source\PSoC4/Step_Counter.c ****         return ((uint32)CY_GET_REG16(Step_Counter_PERIOD_LSB_PTR));
 442:Generated_Source\PSoC4/Step_Counter.c ****     #else
 443:Generated_Source\PSoC4/Step_Counter.c ****         return (CY_GET_REG32(Step_Counter_PERIOD_LSB_PTR));
 311              		.loc 1 443 0
 312 0000 014B     		ldr	r3, .L32
 313 0002 1868     		ldr	r0, [r3]
 444:Generated_Source\PSoC4/Step_Counter.c ****     #endif /* (Step_Counter_UsingFixedFunction) */
 445:Generated_Source\PSoC4/Step_Counter.c **** }
 314              		.loc 1 445 0
 315              		@ sp needed
 316 0004 7047     		bx	lr
 317              	.L33:
 318 0006 C046     		.align	2
 319              	.L32:
 320 0008 80200F40 		.word	1074733184
 321              		.cfi_endproc
 322              	.LFE13:
 323              		.size	Step_Counter_ReadPeriod, .-Step_Counter_ReadPeriod
 324              		.section	.text.Step_Counter_WriteCompare,"ax",%progbits
 325              		.align	2
 326              		.global	Step_Counter_WriteCompare
 327              		.code	16
 328              		.thumb_func
 329              		.type	Step_Counter_WriteCompare, %function
 330              	Step_Counter_WriteCompare:
 331              	.LFB14:
 446:Generated_Source\PSoC4/Step_Counter.c **** 
 447:Generated_Source\PSoC4/Step_Counter.c **** 
 448:Generated_Source\PSoC4/Step_Counter.c **** #if (!Step_Counter_UsingFixedFunction)
 449:Generated_Source\PSoC4/Step_Counter.c **** /*******************************************************************************
 450:Generated_Source\PSoC4/Step_Counter.c **** * Function Name: Step_Counter_WriteCompare
 451:Generated_Source\PSoC4/Step_Counter.c **** ********************************************************************************
 452:Generated_Source\PSoC4/Step_Counter.c **** * Summary:
 453:Generated_Source\PSoC4/Step_Counter.c **** * Changes the compare value.  The compare output will 
 454:Generated_Source\PSoC4/Step_Counter.c **** * reflect the new value on the next UDB clock.  The compare output will be 
 455:Generated_Source\PSoC4/Step_Counter.c **** * driven high when the present counter value compares true based on the 
 456:Generated_Source\PSoC4/Step_Counter.c **** * configured compare mode setting. 
 457:Generated_Source\PSoC4/Step_Counter.c **** *
 458:Generated_Source\PSoC4/Step_Counter.c **** * Parameters:  
 459:Generated_Source\PSoC4/Step_Counter.c **** *  Compare:  New compare value. 
 460:Generated_Source\PSoC4/Step_Counter.c **** *
 461:Generated_Source\PSoC4/Step_Counter.c **** * Return: 
 462:Generated_Source\PSoC4/Step_Counter.c **** *  void
 463:Generated_Source\PSoC4/Step_Counter.c **** *
 464:Generated_Source\PSoC4/Step_Counter.c **** *******************************************************************************/
 465:Generated_Source\PSoC4/Step_Counter.c **** void Step_Counter_WriteCompare(uint32 compare) \
 466:Generated_Source\PSoC4/Step_Counter.c ****                                    
 467:Generated_Source\PSoC4/Step_Counter.c **** {
ARM GAS  C:\Users\casey\AppData\Local\Temp\ccgNvjL5.s 			page 15


 332              		.loc 1 467 0
 333              		.cfi_startproc
 334              		@ args = 0, pretend = 0, frame = 0
 335              		@ frame_needed = 0, uses_anonymous_args = 0
 336              		@ link register save eliminated.
 337              	.LVL4:
 468:Generated_Source\PSoC4/Step_Counter.c ****     #if(Step_Counter_UsingFixedFunction)
 469:Generated_Source\PSoC4/Step_Counter.c ****         CY_SET_REG16(Step_Counter_COMPARE_LSB_PTR, (uint16)compare);
 470:Generated_Source\PSoC4/Step_Counter.c ****     #else
 471:Generated_Source\PSoC4/Step_Counter.c ****         CY_SET_REG32(Step_Counter_COMPARE_LSB_PTR, compare);
 338              		.loc 1 471 0
 339 0000 014B     		ldr	r3, .L35
 340 0002 1860     		str	r0, [r3]
 472:Generated_Source\PSoC4/Step_Counter.c ****     #endif /* (Step_Counter_UsingFixedFunction) */
 473:Generated_Source\PSoC4/Step_Counter.c **** }
 341              		.loc 1 473 0
 342              		@ sp needed
 343 0004 7047     		bx	lr
 344              	.L36:
 345 0006 C046     		.align	2
 346              	.L35:
 347 0008 C0200F40 		.word	1074733248
 348              		.cfi_endproc
 349              	.LFE14:
 350              		.size	Step_Counter_WriteCompare, .-Step_Counter_WriteCompare
 351              		.section	.text.Step_Counter_ReadCompare,"ax",%progbits
 352              		.align	2
 353              		.global	Step_Counter_ReadCompare
 354              		.code	16
 355              		.thumb_func
 356              		.type	Step_Counter_ReadCompare, %function
 357              	Step_Counter_ReadCompare:
 358              	.LFB15:
 474:Generated_Source\PSoC4/Step_Counter.c **** 
 475:Generated_Source\PSoC4/Step_Counter.c **** 
 476:Generated_Source\PSoC4/Step_Counter.c **** /*******************************************************************************
 477:Generated_Source\PSoC4/Step_Counter.c **** * Function Name: Step_Counter_ReadCompare
 478:Generated_Source\PSoC4/Step_Counter.c **** ********************************************************************************
 479:Generated_Source\PSoC4/Step_Counter.c **** * Summary:
 480:Generated_Source\PSoC4/Step_Counter.c **** * Returns the compare value.
 481:Generated_Source\PSoC4/Step_Counter.c **** *
 482:Generated_Source\PSoC4/Step_Counter.c **** * Parameters:  
 483:Generated_Source\PSoC4/Step_Counter.c **** *  void:
 484:Generated_Source\PSoC4/Step_Counter.c **** *
 485:Generated_Source\PSoC4/Step_Counter.c **** * Return: 
 486:Generated_Source\PSoC4/Step_Counter.c **** *  (uint32) Present compare value.
 487:Generated_Source\PSoC4/Step_Counter.c **** *
 488:Generated_Source\PSoC4/Step_Counter.c **** *******************************************************************************/
 489:Generated_Source\PSoC4/Step_Counter.c **** uint32 Step_Counter_ReadCompare(void) 
 490:Generated_Source\PSoC4/Step_Counter.c **** {
 359              		.loc 1 490 0
 360              		.cfi_startproc
 361              		@ args = 0, pretend = 0, frame = 0
 362              		@ frame_needed = 0, uses_anonymous_args = 0
 363              		@ link register save eliminated.
 491:Generated_Source\PSoC4/Step_Counter.c ****     return (CY_GET_REG32(Step_Counter_COMPARE_LSB_PTR));
 364              		.loc 1 491 0
ARM GAS  C:\Users\casey\AppData\Local\Temp\ccgNvjL5.s 			page 16


 365 0000 014B     		ldr	r3, .L38
 366 0002 1868     		ldr	r0, [r3]
 492:Generated_Source\PSoC4/Step_Counter.c **** }
 367              		.loc 1 492 0
 368              		@ sp needed
 369 0004 7047     		bx	lr
 370              	.L39:
 371 0006 C046     		.align	2
 372              	.L38:
 373 0008 C0200F40 		.word	1074733248
 374              		.cfi_endproc
 375              	.LFE15:
 376              		.size	Step_Counter_ReadCompare, .-Step_Counter_ReadCompare
 377              		.section	.text.Step_Counter_ClearFIFO,"ax",%progbits
 378              		.align	2
 379              		.global	Step_Counter_ClearFIFO
 380              		.code	16
 381              		.thumb_func
 382              		.type	Step_Counter_ClearFIFO, %function
 383              	Step_Counter_ClearFIFO:
 384              	.LFB16:
 493:Generated_Source\PSoC4/Step_Counter.c **** 
 494:Generated_Source\PSoC4/Step_Counter.c **** 
 495:Generated_Source\PSoC4/Step_Counter.c **** #if (Step_Counter_COMPARE_MODE_SOFTWARE)
 496:Generated_Source\PSoC4/Step_Counter.c **** /*******************************************************************************
 497:Generated_Source\PSoC4/Step_Counter.c **** * Function Name: Step_Counter_SetCompareMode
 498:Generated_Source\PSoC4/Step_Counter.c **** ********************************************************************************
 499:Generated_Source\PSoC4/Step_Counter.c **** * Summary:
 500:Generated_Source\PSoC4/Step_Counter.c **** *  Sets the software controlled Compare Mode.
 501:Generated_Source\PSoC4/Step_Counter.c **** *
 502:Generated_Source\PSoC4/Step_Counter.c **** * Parameters:
 503:Generated_Source\PSoC4/Step_Counter.c **** *  compareMode:  Compare Mode Enumerated Type.
 504:Generated_Source\PSoC4/Step_Counter.c **** *
 505:Generated_Source\PSoC4/Step_Counter.c **** * Return:
 506:Generated_Source\PSoC4/Step_Counter.c **** *  void
 507:Generated_Source\PSoC4/Step_Counter.c **** *
 508:Generated_Source\PSoC4/Step_Counter.c **** *******************************************************************************/
 509:Generated_Source\PSoC4/Step_Counter.c **** void Step_Counter_SetCompareMode(uint8 compareMode) 
 510:Generated_Source\PSoC4/Step_Counter.c **** {
 511:Generated_Source\PSoC4/Step_Counter.c ****     /* Clear the compare mode bits in the control register */
 512:Generated_Source\PSoC4/Step_Counter.c ****     Step_Counter_CONTROL &= ((uint8)(~Step_Counter_CTRL_CMPMODE_MASK));
 513:Generated_Source\PSoC4/Step_Counter.c ****     
 514:Generated_Source\PSoC4/Step_Counter.c ****     /* Write the new setting */
 515:Generated_Source\PSoC4/Step_Counter.c ****     Step_Counter_CONTROL |= compareMode;
 516:Generated_Source\PSoC4/Step_Counter.c **** }
 517:Generated_Source\PSoC4/Step_Counter.c **** #endif  /* (Step_Counter_COMPARE_MODE_SOFTWARE) */
 518:Generated_Source\PSoC4/Step_Counter.c **** 
 519:Generated_Source\PSoC4/Step_Counter.c **** 
 520:Generated_Source\PSoC4/Step_Counter.c **** #if (Step_Counter_CAPTURE_MODE_SOFTWARE)
 521:Generated_Source\PSoC4/Step_Counter.c **** /*******************************************************************************
 522:Generated_Source\PSoC4/Step_Counter.c **** * Function Name: Step_Counter_SetCaptureMode
 523:Generated_Source\PSoC4/Step_Counter.c **** ********************************************************************************
 524:Generated_Source\PSoC4/Step_Counter.c **** * Summary:
 525:Generated_Source\PSoC4/Step_Counter.c **** *  Sets the software controlled Capture Mode.
 526:Generated_Source\PSoC4/Step_Counter.c **** *
 527:Generated_Source\PSoC4/Step_Counter.c **** * Parameters:
 528:Generated_Source\PSoC4/Step_Counter.c **** *  captureMode:  Capture Mode Enumerated Type.
ARM GAS  C:\Users\casey\AppData\Local\Temp\ccgNvjL5.s 			page 17


 529:Generated_Source\PSoC4/Step_Counter.c **** *
 530:Generated_Source\PSoC4/Step_Counter.c **** * Return:
 531:Generated_Source\PSoC4/Step_Counter.c **** *  void
 532:Generated_Source\PSoC4/Step_Counter.c **** *
 533:Generated_Source\PSoC4/Step_Counter.c **** *******************************************************************************/
 534:Generated_Source\PSoC4/Step_Counter.c **** void Step_Counter_SetCaptureMode(uint8 captureMode) 
 535:Generated_Source\PSoC4/Step_Counter.c **** {
 536:Generated_Source\PSoC4/Step_Counter.c ****     /* Clear the capture mode bits in the control register */
 537:Generated_Source\PSoC4/Step_Counter.c ****     Step_Counter_CONTROL &= ((uint8)(~Step_Counter_CTRL_CAPMODE_MASK));
 538:Generated_Source\PSoC4/Step_Counter.c ****     
 539:Generated_Source\PSoC4/Step_Counter.c ****     /* Write the new setting */
 540:Generated_Source\PSoC4/Step_Counter.c ****     Step_Counter_CONTROL |= ((uint8)((uint8)captureMode << Step_Counter_CTRL_CAPMODE0_SHIFT));
 541:Generated_Source\PSoC4/Step_Counter.c **** }
 542:Generated_Source\PSoC4/Step_Counter.c **** #endif  /* (Step_Counter_CAPTURE_MODE_SOFTWARE) */
 543:Generated_Source\PSoC4/Step_Counter.c **** 
 544:Generated_Source\PSoC4/Step_Counter.c **** 
 545:Generated_Source\PSoC4/Step_Counter.c **** /*******************************************************************************
 546:Generated_Source\PSoC4/Step_Counter.c **** * Function Name: Step_Counter_ClearFIFO
 547:Generated_Source\PSoC4/Step_Counter.c **** ********************************************************************************
 548:Generated_Source\PSoC4/Step_Counter.c **** * Summary:
 549:Generated_Source\PSoC4/Step_Counter.c **** *   This function clears all capture data from the capture FIFO
 550:Generated_Source\PSoC4/Step_Counter.c **** *
 551:Generated_Source\PSoC4/Step_Counter.c **** * Parameters:  
 552:Generated_Source\PSoC4/Step_Counter.c **** *  void:
 553:Generated_Source\PSoC4/Step_Counter.c **** *
 554:Generated_Source\PSoC4/Step_Counter.c **** * Return: 
 555:Generated_Source\PSoC4/Step_Counter.c **** *  None
 556:Generated_Source\PSoC4/Step_Counter.c **** *
 557:Generated_Source\PSoC4/Step_Counter.c **** *******************************************************************************/
 558:Generated_Source\PSoC4/Step_Counter.c **** void Step_Counter_ClearFIFO(void) 
 559:Generated_Source\PSoC4/Step_Counter.c **** {
 385              		.loc 1 559 0
 386              		.cfi_startproc
 387              		@ args = 0, pretend = 0, frame = 0
 388              		@ frame_needed = 0, uses_anonymous_args = 0
 389 0000 10B5     		push	{r4, lr}
 390              		.cfi_def_cfa_offset 8
 391              		.cfi_offset 4, -8
 392              		.cfi_offset 14, -4
 560:Generated_Source\PSoC4/Step_Counter.c **** 
 561:Generated_Source\PSoC4/Step_Counter.c ****     while(0u != (Step_Counter_ReadStatusRegister() & Step_Counter_STATUS_FIFONEMP))
 393              		.loc 1 561 0
 394 0002 01E0     		b	.L41
 395              	.L42:
 562:Generated_Source\PSoC4/Step_Counter.c ****     {
 563:Generated_Source\PSoC4/Step_Counter.c ****         (void)Step_Counter_ReadCapture();
 396              		.loc 1 563 0
 397 0004 FFF7FEFF 		bl	Step_Counter_ReadCapture
 398              	.LVL5:
 399              	.L41:
 561:Generated_Source\PSoC4/Step_Counter.c ****     {
 400              		.loc 1 561 0
 401 0008 FFF7FEFF 		bl	Step_Counter_ReadStatusRegister
 402              	.LVL6:
 403 000c 4306     		lsls	r3, r0, #25
 404 000e F9D4     		bmi	.L42
 564:Generated_Source\PSoC4/Step_Counter.c ****     }
ARM GAS  C:\Users\casey\AppData\Local\Temp\ccgNvjL5.s 			page 18


 565:Generated_Source\PSoC4/Step_Counter.c **** 
 566:Generated_Source\PSoC4/Step_Counter.c **** }
 405              		.loc 1 566 0
 406              		@ sp needed
 407 0010 10BD     		pop	{r4, pc}
 408              		.cfi_endproc
 409              	.LFE16:
 410              		.size	Step_Counter_ClearFIFO, .-Step_Counter_ClearFIFO
 411 0012 C046     		.section	.text.Step_Counter_Init,"ax",%progbits
 412              		.align	2
 413              		.global	Step_Counter_Init
 414              		.code	16
 415              		.thumb_func
 416              		.type	Step_Counter_Init, %function
 417              	Step_Counter_Init:
 418              	.LFB1:
  38:Generated_Source\PSoC4/Step_Counter.c ****         #if (!Step_Counter_UsingFixedFunction && !Step_Counter_ControlRegRemoved)
 419              		.loc 1 38 0
 420              		.cfi_startproc
 421              		@ args = 0, pretend = 0, frame = 0
 422              		@ frame_needed = 0, uses_anonymous_args = 0
 423 0000 10B5     		push	{r4, lr}
 424              		.cfi_def_cfa_offset 8
 425              		.cfi_offset 4, -8
 426              		.cfi_offset 14, -4
  79:Generated_Source\PSoC4/Step_Counter.c ****             Step_Counter_CONTROL = ctrl | Step_Counter_DEFAULT_COMPARE_MODE;
 427              		.loc 1 79 0
 428 0002 134B     		ldr	r3, .L44
 429 0004 1A78     		ldrb	r2, [r3]
 430 0006 0721     		movs	r1, #7
 431 0008 8A43     		bics	r2, r1
 432              	.LVL7:
  80:Generated_Source\PSoC4/Step_Counter.c ****             
 433              		.loc 1 80 0
 434 000a 1A70     		strb	r2, [r3]
  83:Generated_Source\PSoC4/Step_Counter.c ****             
 435              		.loc 1 83 0
 436 000c 1A78     		ldrb	r2, [r3]
 437              	.LVL8:
 438 000e 0439     		subs	r1, r1, #4
 439 0010 8A43     		bics	r2, r1
 440              	.LVL9:
  88:Generated_Source\PSoC4/Step_Counter.c ****             #endif /* 0 != Step_Counter_CAPTURE_MODE */ 
 441              		.loc 1 88 0
 442 0012 1A70     		strb	r2, [r3]
  96:Generated_Source\PSoC4/Step_Counter.c ****         #endif /* (!Step_Counter_UsingFixedFunction) */
 443              		.loc 1 96 0
 444 0014 FFF7FEFF 		bl	Step_Counter_ClearFIFO
 445              	.LVL10:
 100:Generated_Source\PSoC4/Step_Counter.c ****         #if (!(Step_Counter_UsingFixedFunction && (CY_PSOC5A)))
 446              		.loc 1 100 0
 447 0018 0224     		movs	r4, #2
 448 001a 6442     		rsbs	r4, r4, #0
 449 001c 2000     		movs	r0, r4
 450 001e FFF7FEFF 		bl	Step_Counter_WritePeriod
 451              	.LVL11:
 102:Generated_Source\PSoC4/Step_Counter.c ****         #endif /* (!(Step_Counter_UsingFixedFunction && (CY_PSOC5A))) */
ARM GAS  C:\Users\casey\AppData\Local\Temp\ccgNvjL5.s 			page 19


 452              		.loc 1 102 0
 453 0022 2000     		movs	r0, r4
 454 0024 FFF7FEFF 		bl	Step_Counter_WriteCounter
 455              	.LVL12:
 104:Generated_Source\PSoC4/Step_Counter.c ****         
 456              		.loc 1 104 0
 457 0028 0120     		movs	r0, #1
 458 002a FFF7FEFF 		bl	Step_Counter_SetInterruptMode
 459              	.LVL13:
 108:Generated_Source\PSoC4/Step_Counter.c ****             /* Set the compare value (only available to non-fixed function implementation */
 460              		.loc 1 108 0
 461 002e FFF7FEFF 		bl	Step_Counter_ReadStatusRegister
 462              	.LVL14:
 110:Generated_Source\PSoC4/Step_Counter.c ****             /* Use the interrupt output of the status register for IRQ output */
 463              		.loc 1 110 0
 464 0032 0120     		movs	r0, #1
 465 0034 4042     		rsbs	r0, r0, #0
 466 0036 FFF7FEFF 		bl	Step_Counter_WriteCompare
 467              	.LVL15:
 115:Generated_Source\PSoC4/Step_Counter.c ****             
 468              		.loc 1 115 0
 469 003a FFF7FEFF 		bl	CyEnterCriticalSection
 470              	.LVL16:
 117:Generated_Source\PSoC4/Step_Counter.c ****             
 471              		.loc 1 117 0
 472 003e 054A     		ldr	r2, .L44+4
 473 0040 1178     		ldrb	r1, [r2]
 474 0042 1023     		movs	r3, #16
 475 0044 0B43     		orrs	r3, r1
 476 0046 DBB2     		uxtb	r3, r3
 477 0048 1370     		strb	r3, [r2]
 120:Generated_Source\PSoC4/Step_Counter.c ****             
 478              		.loc 1 120 0
 479 004a FFF7FEFF 		bl	CyExitCriticalSection
 480              	.LVL17:
 123:Generated_Source\PSoC4/Step_Counter.c **** 
 481              		.loc 1 123 0
 482              		@ sp needed
 483 004e 10BD     		pop	{r4, pc}
 484              	.L45:
 485              		.align	2
 486              	.L44:
 487 0050 71000F40 		.word	1074724977
 488 0054 93000F40 		.word	1074725011
 489              		.cfi_endproc
 490              	.LFE1:
 491              		.size	Step_Counter_Init, .-Step_Counter_Init
 492              		.section	.text.Step_Counter_Start,"ax",%progbits
 493              		.align	2
 494              		.global	Step_Counter_Start
 495              		.code	16
 496              		.thumb_func
 497              		.type	Step_Counter_Start, %function
 498              	Step_Counter_Start:
 499              	.LFB3:
 179:Generated_Source\PSoC4/Step_Counter.c ****     if(Step_Counter_initVar == 0u)
 500              		.loc 1 179 0
ARM GAS  C:\Users\casey\AppData\Local\Temp\ccgNvjL5.s 			page 20


 501              		.cfi_startproc
 502              		@ args = 0, pretend = 0, frame = 0
 503              		@ frame_needed = 0, uses_anonymous_args = 0
 504 0000 10B5     		push	{r4, lr}
 505              		.cfi_def_cfa_offset 8
 506              		.cfi_offset 4, -8
 507              		.cfi_offset 14, -4
 180:Generated_Source\PSoC4/Step_Counter.c ****     {
 508              		.loc 1 180 0
 509 0002 064B     		ldr	r3, .L48
 510 0004 1B78     		ldrb	r3, [r3]
 511 0006 002B     		cmp	r3, #0
 512 0008 04D1     		bne	.L47
 182:Generated_Source\PSoC4/Step_Counter.c ****         
 513              		.loc 1 182 0
 514 000a FFF7FEFF 		bl	Step_Counter_Init
 515              	.LVL18:
 184:Generated_Source\PSoC4/Step_Counter.c ****     }
 516              		.loc 1 184 0
 517 000e 0122     		movs	r2, #1
 518 0010 024B     		ldr	r3, .L48
 519 0012 1A70     		strb	r2, [r3]
 520              	.L47:
 188:Generated_Source\PSoC4/Step_Counter.c **** }
 521              		.loc 1 188 0
 522 0014 FFF7FEFF 		bl	Step_Counter_Enable
 523              	.LVL19:
 189:Generated_Source\PSoC4/Step_Counter.c **** 
 524              		.loc 1 189 0
 525              		@ sp needed
 526 0018 10BD     		pop	{r4, pc}
 527              	.L49:
 528 001a C046     		.align	2
 529              	.L48:
 530 001c 00000000 		.word	.LANCHOR0
 531              		.cfi_endproc
 532              	.LFE3:
 533              		.size	Step_Counter_Start, .-Step_Counter_Start
 534              		.global	Step_Counter_initVar
 535              		.bss
 536              		.set	.LANCHOR0,. + 0
 537              		.type	Step_Counter_initVar, %object
 538              		.size	Step_Counter_initVar, 1
 539              	Step_Counter_initVar:
 540 0000 00       		.space	1
 541              		.text
 542              	.Letext0:
 543              		.file 2 "Generated_Source\\PSoC4\\cytypes.h"
 544              		.file 3 "Generated_Source\\PSoC4\\CyLib.h"